(lp0
S'Player1 Name'
p1
aS'Player2 Name'
p2
aS'Player1 Rank'
p3
aS'Player2 Rank'
p4
aS'Player1 Inv. Rank'
p5
aS'Player2 Inv. Rank'
p6
aS'Player1 Points'
p7
aS'Player2 Points'
p8
aS'Player1 Inv. Odds'
p9
aS'Player2 Inv. Odds'
p10
aS'Surface'
p11
aS'P1 match wpo 2years'
p12
aS'P2 match wpo 2years'
p13
aS'P1 match wpo 2years surface'
p14
aS'P2 match wpo 2years surface'
p15
aS'P1 set wpo 2years'
p16
aS'P2 set wpo 2years'
p17
aS'P1 set wpo 2years surface'
p18
aS'P2 set wpo 2years surface'
p19
aS'P1 match wpo 6months'
p20
aS'P2 match wpo 6months'
p21
aS'P1 set wpo 6months'
p22
aS'P2 set wpo 6months'
p23
aS'Result'
p24
a.