(dp0
S'Player1 Name'
p1
(lp2
VCilic M.
p3
aVPouille L.
p4
aVDelbonis F.
p5
aVNadal R.
p6
aVMahut N.
p7
aVNishikori K.
p8
aVTipsarevic J.
p9
aVMurray A.
p10
aVBerankis R.
p11
aVLopez F.
p12
aVLorenzi P.
p13
aVTroicki V.
p14
aVDimitrov G.
p15
aVZeballos H.
p16
aVGiannessi A.
p17
aVEvans D.
p18
aVJohnson S.
p19
aVMarchenko I.
p20
aVFerrer D.
p21
aVYoung D.
p22
aVAnderson K.
p23
aVBaghdatis M.
p24
aVSock J.
p25
aVMonfils G.
p26
ag4
aVEdmund K.
p27
ag6
aVCarreno Busta P.
p28
ag15
aVDel Potro J.M.
p29
ag10
aVEvans D.
p30
ag8
aVDonaldson J.
p31
ag26
aVSock J.
p32
aVNadal R.
p33
aVEdmund K.
p34
aVWawrinka S.
p35
ag8
ag10
aVPouille L.
p36
aVMurray A.
p37
ag35
aVMonfils G.
p38
aVNishikori K.
p39
ag35
aVKlizan M.
p40
ag16
aVGojowczyk P.
p41
aVBasilashvili N.
p42
aVDzumhur D.
p43
aVMathieu P.H.
p44
aVPaire B.
p45
aVSeppi A.
p46
aVRobredo T.
p47
aVCervantes I.
p48
ag7
aVJaziri M.
p49
aVBrown D.
p50
aVThiem D.
p51
aVMuller G.
p52
aVMillot V.
p53
aVSimon G.
p54
aVGoffin D.
p55
ag4
aVMarchenko I.
p56
aVJaziri M.
p57
ag51
aVBenneteau J.
p58
aVMahut N.
p59
aVSimon G.
p60
aVGoffin D.
p61
aVThiem D.
p62
aVMannarino A.
p63
aVSchwartzman D.
p64
aVKhachanov K.
p65
aVSidorenko A.
p66
ag13
aVMedvedev D.
p67
aVLajovic D.
p68
aVAlbot R.
p69
ag9
aVTroicki V.
p70
aVKuznetsov An.
p71
aVRosol L.
p72
ag11
aVSousa J.
p73
aVSidorenko A.
p74
aVLajovic D.
p75
aVBerdych T.
p76
aVMedvedev D.
p77
aVYouzhny M.
p78
aVLorenzi P.
p79
aVBautista Agut R.
p80
aVZverev A.
p81
ag35
aVBerdych T.
p82
aVBautista Agut R.
p83
aVWawrinka S.
p84
asS'P2 match wpo 6months'
p85
(lp86
F0.42857142857142855
aF0.2727272727272727
aF0.625
aF0.47244094488188976
aF0.4533333333333333
aF0.4166666666666667
aF0.6470588235294118
aF0.4
aF0.6163522012578616
aF0.44936708860759494
aF0.5684931506849316
aF0.3076923076923077
aF0.5
aF0.6354166666666666
aF0.71875
aF0.5393258426966292
aF0.6470588235294118
aF0.4230769230769231
aF0.5714285714285714
aF0.5886075949367089
aF0.6692913385826772
aF0.36585365853658536
aF0.6687116564417178
aF0.5268817204301075
aF0.625
aF0.6415094339622641
aF0.5
aF0.6163522012578616
aF0.44936708860759494
aF0.6994535519125683
aF0.4
aF0.71875
aF0.4772727272727273
aF0.5886075949367089
aF0.5483870967741935
aF0.6692913385826772
aF0.4925373134328358
aF0.9178743961352657
aF0.358974358974359
aF0.5886075949367089
aF0.6419753086419753
aF0.7089552238805971
aF0.7921348314606742
aF0.6470588235294118
aF0.9178743961352657
aF0.71875
aF0.9178743961352657
aF0.45588235294117646
aF0.5514018691588785
aF0.53125
aF0.0
aF0.4966442953020134
aF0.4520547945205479
aF0.2727272727272727
aF0.38095238095238093
aF0.32857142857142857
aF0.35714285714285715
aF0.3
aF0.4166666666666667
aF0.45588235294117646
aF0.3888888888888889
aF0.3333333333333333
aF0.39473684210526316
aF0.4966442953020134
aF0.32857142857142857
aF0.35714285714285715
aF0.4777777777777778
aF0.5675675675675675
aF0.5514018691588785
aF0.5138888888888888
aF0.6148148148148148
aF0.6234567901234568
aF0.5138888888888888
aF0.5138888888888888
aF0.3793103448275862
aF0.4409448818897638
aF0.5384615384615384
aF0.43820224719101125
aF0.4074074074074074
aF0.0
aF0.5285714285714286
aF0.453416149068323
aF0.41836734693877553
aF0.39285714285714285
aF0.2926829268292683
aF0.7305389221556886
aF0.6296296296296297
aF0.30434782608695654
aF0.41025641025641024
aF0.5486725663716814
aF0.5068493150684932
aF0.5384615384615384
aF0.7289156626506024
aF0.7098445595854922
aF0.453416149068323
aF0.41836734693877553
aF0.5486725663716814
aF0.5384615384615384
aF0.7305389221556886
aF0.5384615384615384
asS'P2 set wpo 6months'
p87
(lp88
cnumpy.core.multiarray
scalar
p89
(cnumpy
dtype
p90
(S'f8'
p91
I0
I1
tp92
Rp93
(I3
S'<'
p94
NNNI-1
I-1
I0
tp95
bS'\xd5W2?\x8bb\xdc?'
p96
tp97
Rp98
ag89
(g93
S'%I\x92$I\x92\xd4?'
p99
tp100
Rp101
ag89
(g93
S'\x00\x00\x00\x00\x00\x00\xe3?'
p102
tp103
Rp104
ag89
(g93
S'\xdd\xe5\xa9/\xca]\xde?'
p105
tp106
Rp107
ag89
(g93
S'"fs\xe9P\x83\xdd?'
p108
tp109
Rp110
ag89
(g93
S'\x00\x00\x00\x00\x00\x00\xde?'
p111
tp112
Rp113
ag89
(g93
S'\x82\xa8td\xcf@\xe4?'
p114
tp115
Rp116
ag89
(g93
S'\x88\xbdQ)z\xd8\xdb?'
p117
tp118
Rp119
ag89
(g93
S'\x1dz\xb7\xb8N5\xe2?'
p120
tp121
Rp122
ag89
(g93
S'\x0c\x7f\xe8f\xea\x95\xdc?'
p123
tp124
Rp125
ag89
(g93
S'\x85\xebQ\xb8\x1e\x85\xe1?'
p126
tp127
Rp128
ag89
(g93
S'\x00\x00\x00\x00\x00\x00\xd5?'
p129
tp130
Rp131
ag89
(g93
S'\x00\x00\x00\x00\x00\x00\xe0?'
p132
tp133
Rp134
ag89
(g93
S'\xf2\x00\x112\x85]\xe3?'
p135
tp136
Rp137
ag89
(g93
S'\xdb_j\x7f\xa9\xfd\xe5?'
p138
tp139
Rp140
ag89
(g93
S'\x9c\xd4}ylE\xe0?'
p141
tp142
Rp143
ag89
(g93
S']V\x0c\x94\xf0F\xe3?'
p144
tp145
Rp146
ag89
(g93
S'\xd6\xabW\xaf^\xbd\xda?'
p147
tp148
Rp149
ag89
(g93
S'\x027\x96A\xa90\xe1?'
p150
tp151
Rp152
ag89
(g93
S'\xde\x164Z\x06\xf2\xe1?'
p153
tp154
Rp155
ag89
(g93
S'R\xbc@&\xc5\x0b\xe4?'
p156
tp157
Rp158
ag89
(g93
S'C\xd3\x1d\xec\xb7\xda\xd8?'
p159
tp160
Rp161
ag89
(g93
S'\xa1B\x85\n\x15*\xe4?'
p162
tp163
Rp164
ag89
(g93
S'8\xa9\xfb\xf2\xd8\x8a\xe0?'
p165
tp166
Rp167
ag89
(g93
S'\x00\x00\x00\x00\x00\x00\xe3?'
p168
tp169
Rp170
ag89
(g93
S'P\xcb\x18\xb8\x03\xc2\xe3?'
p171
tp172
Rp173
ag89
(g93
S'`\xfa\xa5_\xfa\xa5\xdf?'
p174
tp175
Rp176
ag89
(g93
S'\x1dz\xb7\xb8N5\xe2?'
p177
tp178
Rp179
ag89
(g93
S'\x0c\x7f\xe8f\xea\x95\xdc?'
p180
tp181
Rp182
ag89
(g93
S'\x97\xe5\xe2\x81\xdd\xbf\xe4?'
p183
tp184
Rp185
ag89
(g93
S'\xc4\x9b\x11oF\xbc\xd9?'
p186
tp187
Rp188
ag89
(g93
S'\xdb_j\x7f\xa9\xfd\xe5?'
p189
tp190
Rp191
ag89
(g93
S'x\xf2\x839\x8fK\xdf?'
p192
tp193
Rp194
ag89
(g93
S'\xde\x164Z\x06\xf2\xe1?'
p195
tp196
Rp197
ag89
(g93
S'\xb6\xca\x86#\xa6=\xe1?'
p198
tp199
Rp200
ag89
(g93
S'R\xbc@&\xc5\x0b\xe4?'
p201
tp202
Rp203
ag89
(g93
S'\xb8\x1e\x85\xebQ\xb8\xde?'
p204
tp205
Rp206
ag89
(g93
S'\x1b\xceN\xcb\\\x85\xea?'
p207
tp208
Rp209
ag89
(g93
S'\x19\x19\x19\x19\x19\x19\xd9?'
p210
tp211
Rp212
ag89
(g93
S'\xde\x164Z\x06\xf2\xe1?'
p213
tp214
Rp215
ag89
(g93
S'\x90\xcc\x86\xdc\xfb6\xe3?'
p216
tp217
Rp218
ag89
(g93
S'\xd0pR\xf7\xe5\xb1\xe5?'
p219
tp220
Rp221
ag89
(g93
S'p\x8a2\x02NQ\xe6?'
p222
tp223
Rp224
ag89
(g93
S']V\x0c\x94\xf0F\xe3?'
p225
tp226
Rp227
ag89
(g93
S'\x1b\xceN\xcb\\\x85\xea?'
p228
tp229
Rp230
ag89
(g93
S'\xdb_j\x7f\xa9\xfd\xe5?'
p231
tp232
Rp233
ag89
(g93
S'\x1b\xceN\xcb\\\x85\xea?'
p234
tp235
Rp236
ag89
(g93
S'\xd8\xbd\xeeu\xaf{\xdd?'
p237
tp238
Rp239
ag89
(g93
S'4\xc4\x1f\xb7.\xef\xe0?'
p240
tp241
Rp242
ag89
(g93
S'\xc8\x9d%\xec\xe6\xb7\xe0?'
p243
tp244
Rp245
ag89
(g93
S'\x00\x00\x00\x00\x00\x00\x00\x00'
p246
tp247
Rp248
ag89
(g93
S'\xa6n\xb1\xc7y\n\xe0?'
p249
tp250
Rp251
ag89
(g93
S'\x1e\xe31\x1e\xe31\xde?'
p252
tp253
Rp254
ag89
(g93
S'F\x17]t\xd1E\xd7?'
p255
tp256
Rp257
ag89
(g93
S'X\xe9\xa9\x85\x95\x9e\xda?'
p258
tp259
Rp260
ag89
(g93
S'\x9dW@\xe3n\x9d\xd7?'
p261
tp262
Rp263
ag89
(g93
S'\xfa\x18\x9c\x8f\xc1\xf9\xd8?'
p264
tp265
Rp266
ag89
(g93
S'%I\x92$I\x92\xd4?'
p267
tp268
Rp269
ag89
(g93
S'\xd3\x9b\xde\xf4\xa67\xdd?'
p270
tp271
Rp272
ag89
(g93
S'\xd8\xbd\xeeu\xaf{\xdd?'
p273
tp274
Rp275
ag89
(g93
S'\x9a\x99\x99\x99\x99\x99\xd9?'
p276
tp277
Rp278
ag89
(g93
S'\x89\x88\x88\x88\x88\x88\xd8?'
p279
tp280
Rp281
ag89
(g93
S',\x05j\xfdJ\x81\xda?'
p282
tp283
Rp284
ag89
(g93
S'\xa6n\xb1\xc7y\n\xe0?'
p285
tp286
Rp287
ag89
(g93
S'\x9dW@\xe3n\x9d\xd7?'
p288
tp289
Rp290
ag89
(g93
S'\xfa\x18\x9c\x8f\xc1\xf9\xd8?'
p291
tp292
Rp293
ag89
(g93
S'?\xf7s?\xf7s\xdf?'
p294
tp295
Rp296
ag89
(g93
S'\x92\x91\x91\x91\x91\x91\xe1?'
p297
tp298
Rp299
ag89
(g93
S'4\xc4\x1f\xb7.\xef\xe0?'
p300
tp301
Rp302
ag89
(g93
S'&\x87\xb8\xca\x140\xdf?'
p303
tp304
Rp305
ag89
(g93
S'\xa0n\xc43\x1f\xb4\xe2?'
p306
tp307
Rp308
ag89
(g93
S'_\x92\xc5\xf8+_\xe2?'
p309
tp310
Rp311
ag89
(g93
S'&\x87\xb8\xca\x140\xdf?'
p312
tp313
Rp314
ag89
(g93
S'&\x87\xb8\xca\x140\xdf?'
p315
tp316
Rp317
ag89
(g93
S'\xd6a\x94\xa9x\xae\xd9?'
p318
tp319
Rp320
ag89
(g93
S'U\xcc\xad\xceH\xc5\xdc?'
p321
tp322
Rp323
ag89
(g93
S'i\xf3>\xc5%C\xe0?'
p324
tp325
Rp326
ag89
(g93
S'\xcf\x11(\xdaj\xf0\xdc?'
p327
tp328
Rp329
ag89
(g93
S'5&\xd2\x03\x95\xb3\xdb?'
p330
tp331
Rp332
aF0.0
ag89
(g93
S'\x9bt\x971\xe5\xeb\xe0?'
p333
tp334
Rp335
ag89
(g93
S'$\xadL\x9e\x80\xe8\xdc?'
p336
tp337
Rp338
ag89
(g93
S"z\x11'*O\x0b\xdd?"
p339
tp340
Rp341
ag89
(g93
S'\xd0\xba\xc1\x14\xf9\xac\xdb?'
p342
tp343
Rp344
ag89
(g93
S'I\x92$I\x92$\xd9?'
p345
tp346
Rp347
ag89
(g93
S')\xd6\x8bb\xbd(\xe6?'
p348
tp349
Rp350
ag89
(g93
S'\xb0wL\r\xec\x1d\xe3?'
p351
tp352
Rp353
ag89
(g93
S'Lg1\x9d\xc5t\xd6?'
p354
tp355
Rp356
ag89
(g93
S'<\xc9RG\x88m\xda?'
p357
tp358
Rp359
ag89
(g93
S'\x1f\xccP\xc5xz\xe0?'
p360
tp361
Rp362
ag89
(g93
S'\x00\x00\x00\x00\x00\x00\xe0?'
p363
tp364
Rp365
ag89
(g93
S'i\xf3>\xc5%C\xe0?'
p366
tp367
Rp368
ag89
(g93
S'z*\x85\xf45O\xe5?'
p369
tp370
Rp371
ag89
(g93
S'EtJu\x17k\xe5?'
p372
tp373
Rp374
ag89
(g93
S'$\xadL\x9e\x80\xe8\xdc?'
p375
tp376
Rp377
ag89
(g93
S"z\x11'*O\x0b\xdd?"
p378
tp379
Rp380
ag89
(g93
S'\x1f\xccP\xc5xz\xe0?'
p381
tp382
Rp383
ag89
(g93
S'i\xf3>\xc5%C\xe0?'
p384
tp385
Rp386
ag89
(g93
S')\xd6\x8bb\xbd(\xe6?'
p387
tp388
Rp389
ag89
(g93
S'i\xf3>\xc5%C\xe0?'
p390
tp391
Rp392
asS'P2 match wpo 2years'
p393
(lp394
F0.4098360655737705
aF0.2727272727272727
aF0.625
aF0.4895833333333333
aF0.49122807017543857
aF0.45454545454545453
aF0.6470588235294118
aF0.41025641025641024
aF0.6343283582089553
aF0.4628099173553719
aF0.5982905982905983
aF0.32
aF0.4811320754716981
aF0.6436781609195402
aF0.7099236641221374
aF0.55
aF0.6470588235294118
aF0.42857142857142855
aF0.5257731958762887
aF0.591304347826087
aF0.6774193548387096
aF0.42857142857142855
aF0.6581196581196581
aF0.5268817204301075
aF0.625
aF0.625
aF0.5084745762711864
aF0.627906976744186
aF0.4628099173553719
aF0.6865671641791045
aF0.38596491228070173
aF0.7099236641221374
aF0.5166666666666667
aF0.591304347826087
aF0.5641025641025641
aF0.6774193548387096
aF0.515625
aF0.9216867469879518
aF0.37142857142857144
aF0.591304347826087
aF0.6033057851239669
aF0.7142857142857143
aF0.7841726618705036
aF0.6470588235294118
aF0.926829268292683
aF0.7131782945736435
aF0.926829268292683
aF0.38235294117647056
aF0.5523809523809524
aF0.53125
aF0.0
aF0.4909090909090909
aF0.4583333333333333
aF0.2727272727272727
aF0.39473684210526316
aF0.30612244897959184
aF0.38095238095238093
aF0.3
aF0.3958333333333333
aF0.38235294117647056
aF0.375
aF0.3333333333333333
aF0.375
aF0.4909090909090909
aF0.30612244897959184
aF0.38095238095238093
aF0.5263157894736842
aF0.6
aF0.5523809523809524
aF0.5362318840579711
aF0.6403508771929824
aF0.6461538461538462
aF0.5362318840579711
aF0.5362318840579711
aF0.39215686274509803
aF0.3977272727272727
aF0.5487804878048781
aF0.4431818181818182
aF0.4074074074074074
aF0.0
aF0.5188679245283019
aF0.475
aF0.4142857142857143
aF0.4
aF0.30303030303030304
aF0.7293233082706767
aF0.6296296296296297
aF0.30434782608695654
aF0.4
aF0.5454545454545454
aF0.5161290322580645
aF0.5487804878048781
aF0.725
aF0.7034482758620689
aF0.475
aF0.4142857142857143
aF0.5454545454545454
aF0.5487804878048781
aF0.7293233082706767
aF0.5487804878048781
asS'Player2 Rank'
p395
(lp396
F92.0
aF144.0
aF17.0
aF87.0
aF70.0
aF95.0
aF39.0
aF45.0
aF10.0
aF36.0
aF31.0
aF122.0
aF55.0
aF16.0
aF3.0
aF28.0
aF142.0
aF72.0
aF38.0
aF23.0
aF11.0
aF120.0
aF9.0
aF48.0
aF17.0
aF21.0
aF47.0
aF10.0
aF36.0
aF13.0
aF40.0
aF3.0
aF42.0
aF23.0
aF44.0
aF11.0
aF25.0
aF1.0
aF63.0
aF23.0
aF24.0
aF12.0
aF7.0
aF142.0
aF1.0
aF3.0
aF1.0
aF238.0
aF37.0
aF48.0
aF202.0
aF57.0
aF68.0
aF162.0
aF50.0
aF87.0
aF108.0
aF154.0
aF89.0
aF238.0
aF209.0
aF106.0
aF55.0
aF57.0
aF87.0
aF108.0
aF40.0
aF28.0
aF37.0
aF18.0
aF14.0
aF10.0
aF18.0
aF18.0
aF83.0
aF85.0
aF27.0
aF32.0
aF117.0
aF323.0
aF47.0
aF34.0
aF53.0
aF61.0
aF90.0
aF3.0
aF16.0
aF201.0
aF35.0
aF33.0
aF46.0
aF27.0
aF6.0
aF9.0
aF34.0
aF53.0
aF33.0
aF27.0
aF3.0
aF27.0
asS'P1 set wpo 2years surface'
p397
(lp398
g89
(g93
S'\xb4Fk\xb4Fk\xe4?'
p399
tp400
Rp401
ag89
(g93
S'\\\xbe\xe5[\xbe\xe5\xdb?'
p402
tp403
Rp404
ag89
(g93
S'|\xdd\xeb^\xf7\xba\xd7?'
p405
tp406
Rp407
ag89
(g93
S'}\xcb\xb7|\xcb\xb7\xe4?'
p408
tp409
Rp410
ag89
(g93
S'a\xb9\xa7\x11\x96{\xda?'
p411
tp412
Rp413
ag89
(g93
S'\xa5Vj\xa5Vj\xe5?'
p414
tp415
Rp416
ag89
(g93
S'\x92$I\x92$I\xd2?'
p417
tp418
Rp419
ag89
(g93
S'\xc1_\xc5\t)y\xe6?'
p420
tp421
Rp422
ag89
(g93
S'\xb2\x02a\xa4\x1d+\xe0?'
p423
tp424
Rp425
ag89
(g93
S'\xa0q\xb7\xce+\xa0\xe1?'
p426
tp427
Rp428
ag89
(g93
S"\xd2'}\xd2'}\xd2?"
p429
tp430
Rp431
ag89
(g93
S'9\x8e\xe38\x8e\xe3\xe0?'
p432
tp433
Rp434
ag89
(g93
S'333333\xe3?'
p435
tp436
Rp437
ag89
(g93
S'\x00\x00\x00\x00\x00\x00\xe0?'
p438
tp439
Rp440
aF0.0
ag89
(g93
S'\x84\x10B\x08!\x84\xe0?'
p441
tp442
Rp443
ag89
(g93
S'Q\x14EQ\x14E\xe1?'
p444
tp445
Rp446
ag89
(g93
S'\xed\x1b\xd6\xbea\xed\xdb?'
p447
tp448
Rp449
ag89
(g93
S'U\xa3\x8fT\xa3\x8f\xe4?'
p450
tp451
Rp452
ag89
(g93
S'P\xfa\xa4O\xfa\xa4\xdf?'
p453
tp454
Rp455
ag89
(g93
S'\x83\x82\x82\x82\x82\x82\xe2?'
p456
tp457
Rp458
ag89
(g93
S'\x96{\x1aa\xb9\xa7\xe1?'
p459
tp460
Rp461
ag89
(g93
S'\xf9\xac\x1bL\x91\xcf\xe2?'
p462
tp463
Rp464
ag89
(g93
S'\t\x1aN\xea\xbe<\xe6?'
p465
tp466
Rp467
ag89
(g93
S'\\\xbe\xe5[\xbe\xe5\xdb?'
p468
tp469
Rp470
ag89
(g93
S'\xc9g\xdd`\x8a|\xd6?'
p471
tp472
Rp473
ag89
(g93
S'}\xcb\xb7|\xcb\xb7\xe4?'
p474
tp475
Rp476
ag89
(g93
S'z\xd3\x9b\xde\xf4\xa6\xe7?'
p477
tp478
Rp479
ag89
(g93
S'333333\xe3?'
p480
tp481
Rp482
ag89
(g93
S'\xd7\xa3p=\n\xd7\xe3?'
p483
tp484
Rp485
ag89
(g93
S'\xc1_\xc5\t)y\xe6?'
p486
tp487
Rp488
ag89
(g93
S'\x84\x10B\x08!\x84\xe0?'
p489
tp490
Rp491
ag89
(g93
S'fY\x96eY\x96\xe5?'
p492
tp493
Rp494
ag89
(g93
S"vb'vb'\xd6?"
p495
tp496
Rp497
ag89
(g93
S'\t\x1aN\xea\xbe<\xe6?'
p498
tp499
Rp500
ag89
(g93
S'\xf9\xac\x1bL\x91\xcf\xe2?'
p501
tp502
Rp503
ag89
(g93
S'}\xcb\xb7|\xcb\xb7\xe4?'
p504
tp505
Rp506
ag89
(g93
S'\xc9g\xdd`\x8a|\xd6?'
p507
tp508
Rp509
ag89
(g93
S'\nqV~B\x9c\xe5?'
p510
tp511
Rp512
ag89
(g93
S'fY\x96eY\x96\xe5?'
p513
tp514
Rp515
ag89
(g93
S'\xc1_\xc5\t)y\xe6?'
p516
tp517
Rp518
ag89
(g93
S'\\\xbe\xe5[\xbe\xe5\xdb?'
p519
tp520
Rp521
ag89
(g93
S'\xc1_\xc5\t)y\xe6?'
p522
tp523
Rp524
ag89
(g93
S'\x8c\xe2\\\xc7(\xce\xe5?'
p525
tp526
Rp527
ag89
(g93
S'\x955eMYS\xe6?'
p528
tp529
Rp530
ag89
(g93
S'fY\x96eY\x96\xe5?'
p531
tp532
Rp533
ag89
(g93
S'\x8c\xe2\\\xc7(\xce\xe5?'
p534
tp535
Rp536
ag89
(g93
S'#,\xf74\xc2r\xdf?'
p537
tp538
Rp539
ag89
(g93
S'\x00\x00\x00\x00\x00\x00\xe0?'
p540
tp541
Rp542
ag89
(g93
S'(\xaf\xa1\xbc\x86\xf2\xda?'
p543
tp544
Rp545
ag89
(g93
S'\x00\x00\x00\x00\x00\x00\xd0?'
p546
tp547
Rp548
ag89
(g93
S'6\xd9d\x93M6\xd9?'
p549
tp550
Rp551
ag89
(g93
S'<<<<<<\xdc?'
p552
tp553
Rp554
ag89
(g93
S'\x1e\x1e\x1e\x1e\x1e\x1e\xde?'
p555
tp556
Rp557
ag89
(g93
S'<^l\t\xbe\xcd\xdf?'
p558
tp559
Rp560
ag89
(g93
S'W\xd4\x15uE]\xe1?'
p561
tp562
Rp563
ag89
(g93
S'^Cy\r\xe55\xd4?'
p564
tp565
Rp566
ag89
(g93
S'\xdb\xb6m\xdb\xb6m\xdb?'
p567
tp568
Rp569
ag89
(g93
S'\xaay\x90\xbb~\xb6\xd8?'
p570
tp571
Rp572
ag89
(g93
S'(\xaf\xa1\xbc\x86\xf2\xda?'
p573
tp574
Rp575
ag89
(g93
S'@=S\xb9\xeex\xe1?'
p576
tp577
Rp578
ag89
(g93
S'\xba\xe8\xa2\x8b.\xba\xe0?'
p579
tp580
Rp581
ag89
(g93
S'\xb7m\xdb\xb6m\xdb\xd6?'
p582
tp583
Rp584
ag89
(g93
S'\xc3b$\x946\xde\xe1?'
p585
tp586
Rp587
ag89
(g93
S'\xda\x05\xc4\xa6\xd2\x90\xe3?'
p588
tp589
Rp590
ag89
(g93
S'q=\n\xd7\xa3p\xdd?'
p591
tp592
Rp593
ag89
(g93
S'\x10>\xf8\xe0\x83\x0f\xde?'
p594
tp595
Rp596
ag89
(g93
S'\xaay\x90\xbb~\xb6\xd8?'
p597
tp598
Rp599
ag89
(g93
S'@=S\xb9\xeex\xe1?'
p600
tp601
Rp602
ag89
(g93
S'\xf9\xac\x1bL\x91\xcf\xda?'
p603
tp604
Rp605
ag89
(g93
S'\xdb\xb6m\xdb\xb6m\xdb?'
p606
tp607
Rp608
ag89
(g93
S'\xc3b$\x946\xde\xe1?'
p609
tp610
Rp611
ag89
(g93
S'\xda\x05\xc4\xa6\xd2\x90\xe3?'
p612
tp613
Rp614
ag89
(g93
S'@=S\xb9\xeex\xe1?'
p615
tp616
Rp617
ag89
(g93
S'\xed\xe0\x08"\xad\x17\xe0?'
p618
tp619
Rp620
ag89
(g93
S'br\x051\xb9\x82\xd8?'
p621
tp622
Rp623
ag89
(g93
S'\xdb\xb6m\xdb\xb6m\xdb?'
p624
tp625
Rp626
ag89
(g93
S'\x00\x00\x00\x00\x00\x00\x00\x00'
p627
tp628
Rp629
ag89
(g93
S'Lg1\x9d\xc5t\xd6?'
p630
tp631
Rp632
aF0.0
ag89
(g93
S'\xbe\xf7\xde{\xef\xbd\xd7?'
p633
tp634
Rp635
ag89
(g93
S'\xb8\x1e\x85\xebQ\xb8\xce?'
p636
tp637
Rp638
ag89
(g93
S'\x00\x00\x00\x00\x00\x00\xdc?'
p639
tp640
Rp641
ag89
(g93
S'\x83\x98\\AL\xae\xe0?'
p642
tp643
Rp644
ag89
(g93
S'q\xf5\x83\x8e\n|\xe1?'
p645
tp646
Rp647
ag89
(g93
S'\xa4\x16!\x7f\xcd\x8e\xda?'
p648
tp649
Rp650
ag89
(g93
S'\x00\x00\x00\x00\x00\x00\xe0?'
p651
tp652
Rp653
ag89
(g93
S'\xa7B\xb4\xe1\xf3\xc7\xdc?'
p654
tp655
Rp656
ag89
(g93
S'\x00\x00\x00\x00\x00\x00\x00\x00'
p657
tp658
Rp659
ag89
(g93
S'\xbe\xf7\xde{\xef\xbd\xd7?'
p660
tp661
Rp662
ag89
(g93
S'\x04T9B?@\xe5?'
p663
tp664
Rp665
aF0.0
ag89
(g93
S'/\xa7\xe0\xe5\x14\xbc\xdc?'
p666
tp667
Rp668
ag89
(g93
S'Lg1\x9d\xc5t\xd6?'
p669
tp670
Rp671
ag89
(g93
S'333333\xe3?'
p672
tp673
Rp674
ag89
(g93
S'\xde\xdd\xdd\xdd\xdd\xdd\xdd?'
p675
tp676
Rp677
ag89
(g93
S'\x8d\xf5\xa1\xb1>4\xe6?'
p678
tp679
Rp680
ag89
(g93
S'\x04T9B?@\xe5?'
p681
tp682
Rp683
ag89
(g93
S'333333\xe3?'
p684
tp685
Rp686
ag89
(g93
S'\x8d\xf5\xa1\xb1>4\xe6?'
p687
tp688
Rp689
asS'Player1 Inv. Rank'
p690
(lp691
F0.1111111111111111
aF0.04
aF0.023255813953488372
aF0.2
aF0.023809523809523808
aF0.14285714285714285
aF0.004
aF0.5
aF0.011235955056179775
aF0.05555555555555555
aF0.025
aF0.03125
aF0.041666666666666664
aF0.014084507042253521
aF0.00411522633744856
aF0.015625
aF0.045454545454545456
aF0.015873015873015872
aF0.07692307692307693
aF0.017857142857142856
aF0.02857142857142857
aF0.022727272727272728
aF0.037037037037037035
aF0.08333333333333333
aF0.04
aF0.011904761904761904
aF0.2
aF0.02564102564102564
aF0.041666666666666664
aF0.007042253521126761
aF0.5
aF0.015625
aF0.14285714285714285
aF0.00819672131147541
aF0.08333333333333333
aF0.037037037037037035
aF0.2
aF0.011904761904761904
aF0.3333333333333333
aF0.14285714285714285
aF0.5
aF0.04
aF0.5
aF0.3333333333333333
aF0.08333333333333333
aF0.14285714285714285
aF0.3333333333333333
aF0.03225806451612903
aF0.015151515151515152
aF0.004784688995215311
aF0.009433962264150943
aF0.013513513513513514
aF0.014492753623188406
aF0.02631578947368421
aF0.010869565217391304
aF0.00398406374501992
aF0.012987012987012988
aF0.025
aF0.01818181818181818
aF0.014705882352941176
aF0.1
aF0.02702702702702703
aF0.006172839506172839
aF0.03571428571428571
aF0.07142857142857142
aF0.05555555555555555
aF0.02
aF0.01818181818181818
aF0.1
aF0.004201680672268907
aF0.025
aF0.03571428571428571
aF0.07142857142857142
aF0.1
aF0.016129032258064516
aF0.015873015873015872
aF0.00980392156862745
aF0.00392156862745098
aF0.02857142857142857
aF0.006944444444444444
aF0.0136986301369863
aF0.009900990099009901
aF0.004405286343612335
aF0.030303030303030304
aF0.021739130434782608
aF0.011764705882352941
aF0.012048192771084338
aF0.029411764705882353
aF0.00392156862745098
aF0.0136986301369863
aF0.1111111111111111
aF0.006944444444444444
aF0.018867924528301886
aF0.02857142857142857
aF0.0625
aF0.037037037037037035
aF0.3333333333333333
aF0.1111111111111111
aF0.0625
aF0.3333333333333333
asS'Player2 Inv. Rank'
p692
(lp693
F0.010869565217391304
aF0.006944444444444444
aF0.058823529411764705
aF0.011494252873563218
aF0.014285714285714285
aF0.010526315789473684
aF0.02564102564102564
aF0.022222222222222223
aF0.1
aF0.027777777777777776
aF0.03225806451612903
aF0.00819672131147541
aF0.01818181818181818
aF0.0625
aF0.3333333333333333
aF0.03571428571428571
aF0.007042253521126761
aF0.013888888888888888
aF0.02631578947368421
aF0.043478260869565216
aF0.09090909090909091
aF0.008333333333333333
aF0.1111111111111111
aF0.020833333333333332
aF0.058823529411764705
aF0.047619047619047616
aF0.02127659574468085
aF0.1
aF0.027777777777777776
aF0.07692307692307693
aF0.025
aF0.3333333333333333
aF0.023809523809523808
aF0.043478260869565216
aF0.022727272727272728
aF0.09090909090909091
aF0.04
aF1.0
aF0.015873015873015872
aF0.043478260869565216
aF0.041666666666666664
aF0.08333333333333333
aF0.14285714285714285
aF0.007042253521126761
aF1.0
aF0.3333333333333333
aF1.0
aF0.004201680672268907
aF0.02702702702702703
aF0.020833333333333332
aF0.0049504950495049506
aF0.017543859649122806
aF0.014705882352941176
aF0.006172839506172839
aF0.02
aF0.011494252873563218
aF0.009259259259259259
aF0.006493506493506494
aF0.011235955056179775
aF0.004201680672268907
aF0.004784688995215311
aF0.009433962264150943
aF0.01818181818181818
aF0.017543859649122806
aF0.011494252873563218
aF0.009259259259259259
aF0.025
aF0.03571428571428571
aF0.02702702702702703
aF0.05555555555555555
aF0.07142857142857142
aF0.1
aF0.05555555555555555
aF0.05555555555555555
aF0.012048192771084338
aF0.011764705882352941
aF0.037037037037037035
aF0.03125
aF0.008547008547008548
aF0.0030959752321981426
aF0.02127659574468085
aF0.029411764705882353
aF0.018867924528301886
aF0.01639344262295082
aF0.011111111111111112
aF0.3333333333333333
aF0.0625
aF0.004975124378109453
aF0.02857142857142857
aF0.030303030303030304
aF0.021739130434782608
aF0.037037037037037035
aF0.16666666666666666
aF0.1111111111111111
aF0.029411764705882353
aF0.018867924528301886
aF0.030303030303030304
aF0.037037037037037035
aF0.3333333333333333
aF0.037037037037037035
asS'P1 set wpo 6months'
p694
(lp695
g89
(g93
S'\xa1B\x85\n\x15*\xe4?'
p696
tp697
Rp698
ag89
(g93
S'\xb8\x1e\x85\xebQ\xb8\xde?'
p699
tp700
Rp701
ag89
(g93
S'\xe7\x11\xaa\xcf\xb45\xde?'
p702
tp703
Rp704
ag89
(g93
S'\xb7\xca\x05\xb7\xca\x05\xe7?'
p705
tp706
Rp707
ag89
(g93
S'x\xf2\x839\x8fK\xdf?'
p708
tp709
Rp710
ag89
(g93
S'p\x8a2\x02NQ\xe6?'
p711
tp712
Rp713
ag89
(g93
S'\xbb\x12\xb5+Q\xbb\xd2?'
p714
tp715
Rp716
ag89
(g93
S'wq\x17wq\x17\xe7?'
p717
tp718
Rp719
ag89
(g93
S'\x9a\x99\x99\x99\x99\x99\xd9?'
p720
tp721
Rp722
ag89
(g93
S'\x14;\xb1\x13;\xb1\xe1?'
p723
tp724
Rp725
ag89
(g93
S'\xc4\x9b\x11oF\xbc\xd9?'
p726
tp727
Rp728
ag89
(g93
S'\n\xe4\x9fU\xc6\x99\xe0?'
p729
tp730
Rp731
ag89
(g93
S'\x90\xcc\x86\xdc\xfb6\xe3?'
p732
tp733
Rp734
ag89
(g93
S'\x93\x95\xacd%+\xd9?'
p735
tp736
Rp737
ag89
(g93
S'UUUUUU\xd5?'
p738
tp739
Rp740
ag89
(g93
S'\x00\x00\x00\x00\x00\x00\xdf?'
p741
tp742
Rp743
ag89
(g93
S'\xf6\xdd\xaf\xc8\x1df\xe0?'
p744
tp745
Rp746
ag89
(g93
S'\x19\x19\x19\x19\x19\x19\xd9?'
p747
tp748
Rp749
ag89
(g93
S'\x97\xe5\xe2\x81\xdd\xbf\xe4?'
p750
tp751
Rp752
ag89
(g93
S'\xe3\xb7K=\x19\xbf\xdd?'
p753
tp754
Rp755
ag89
(g93
S'\xb9 \xe3\x82\x8c\x0b\xe2?'
p756
tp757
Rp758
ag89
(g93
S'\xb6\xca\x86#\xa6=\xe1?'
p759
tp760
Rp761
ag89
(g93
S'S.\xe5R.\xe5\xe2?'
p762
tp763
Rp764
ag89
(g93
S'\xd0pR\xf7\xe5\xb1\xe5?'
p765
tp766
Rp767
ag89
(g93
S'\xb8\x1e\x85\xebQ\xb8\xde?'
p768
tp769
Rp770
ag89
(g93
S'\xf3\xc3"e\xe0\xe9\xd6?'
p771
tp772
Rp773
ag89
(g93
S'\xb7\xca\x05\xb7\xca\x05\xe7?'
p774
tp775
Rp776
ag89
(g93
S'\x82\xa8td\xcf@\xe4?'
p777
tp778
Rp779
ag89
(g93
S'\x90\xcc\x86\xdc\xfb6\xe3?'
p780
tp781
Rp782
ag89
(g93
S']V\x0c\x94\xf0F\xe3?'
p783
tp784
Rp785
ag89
(g93
S'wq\x17wq\x17\xe7?'
p786
tp787
Rp788
ag89
(g93
S'\x00\x00\x00\x00\x00\x00\xdf?'
p789
tp790
Rp791
ag89
(g93
S'p\x8a2\x02NQ\xe6?'
p792
tp793
Rp794
ag89
(g93
S'\x00\x00\x00\x00\x00\x00\xd5?'
p795
tp796
Rp797
ag89
(g93
S'\xd0pR\xf7\xe5\xb1\xe5?'
p798
tp799
Rp800
ag89
(g93
S'S.\xe5R.\xe5\xe2?'
p801
tp802
Rp803
ag89
(g93
S'\xb7\xca\x05\xb7\xca\x05\xe7?'
p804
tp805
Rp806
ag89
(g93
S'\xf3\xc3"e\xe0\xe9\xd6?'
p807
tp808
Rp809
ag89
(g93
S'\xdb_j\x7f\xa9\xfd\xe5?'
p810
tp811
Rp812
ag89
(g93
S'p\x8a2\x02NQ\xe6?'
p813
tp814
Rp815
ag89
(g93
S'wq\x17wq\x17\xe7?'
p816
tp817
Rp818
ag89
(g93
S'\xb8\x1e\x85\xebQ\xb8\xde?'
p819
tp820
Rp821
ag89
(g93
S'wq\x17wq\x17\xe7?'
p822
tp823
Rp824
ag89
(g93
S'\xdb_j\x7f\xa9\xfd\xe5?'
p825
tp826
Rp827
ag89
(g93
S'\xd0pR\xf7\xe5\xb1\xe5?'
p828
tp829
Rp830
ag89
(g93
S'p\x8a2\x02NQ\xe6?'
p831
tp832
Rp833
ag89
(g93
S'\xdb_j\x7f\xa9\xfd\xe5?'
p834
tp835
Rp836
ag89
(g93
S'\x0b\xff\xa2\xc2\xbf\xa8\xe0?'
p837
tp838
Rp839
ag89
(g93
S'\x9a\x99\x99\x99\x99\x99\xd9?'
p840
tp841
Rp842
ag89
(g93
S'\x9a\x99\x99\x99\x99\x99\xd9?'
p843
tp844
Rp845
ag89
(g93
S'\x89\x88\x88\x88\x88\x88\xd8?'
p846
tp847
Rp848
ag89
(g93
S'\x1bp\xc5\x1ap\xc5\xda?'
p849
tp850
Rp851
ag89
(g93
S'\x94\x0bQ7\x83\x96\xdd?'
p852
tp853
Rp854
ag89
(g93
S'\xabt\x851\xd5\xa2\xde?'
p855
tp856
Rp857
ag89
(g93
S'NNNNNN\xde?'
p858
tp859
Rp860
ag89
(g93
S'\xb6B\x90aI\xb8\xe1?'
p861
tp862
Rp863
ag89
(g93
S'z\xd3\x9b\xde\xf4\xa6\xd7?'
p864
tp865
Rp866
ag89
(g93
S'?\xf7s?\xf7s\xdf?'
p867
tp868
Rp869
ag89
(g93
S',\x05j\xfdJ\x81\xda?'
p870
tp871
Rp872
ag89
(g93
S'\x1e\xe31\x1e\xe31\xde?'
p873
tp874
Rp875
ag89
(g93
S'_\x92\xc5\xf8+_\xe2?'
p876
tp877
Rp878
ag89
(g93
S'4\xc4\x1f\xb7.\xef\xe0?'
p879
tp880
Rp881
ag89
(g93
S'F\x17]t\xd1E\xd7?'
p882
tp883
Rp884
ag89
(g93
S'\x92\x91\x91\x91\x91\x91\xe1?'
p885
tp886
Rp887
ag89
(g93
S'\xa0n\xc43\x1f\xb4\xe2?'
p888
tp889
Rp890
ag89
(g93
S'&\x87\xb8\xca\x140\xdf?'
p891
tp892
Rp893
ag89
(g93
S'X\xe9\xa9\x85\x95\x9e\xda?'
p894
tp895
Rp896
ag89
(g93
S',\x05j\xfdJ\x81\xda?'
p897
tp898
Rp899
ag89
(g93
S'_\x92\xc5\xf8+_\xe2?'
p900
tp901
Rp902
ag89
(g93
S'\xd8\xbd\xeeu\xaf{\xdd?'
p903
tp904
Rp905
ag89
(g93
S'?\xf7s?\xf7s\xdf?'
p906
tp907
Rp908
ag89
(g93
S'\x92\x91\x91\x91\x91\x91\xe1?'
p909
tp910
Rp911
ag89
(g93
S'\xa0n\xc43\x1f\xb4\xe2?'
p912
tp913
Rp914
ag89
(g93
S'_\x92\xc5\xf8+_\xe2?'
p915
tp916
Rp917
ag89
(g93
S'\n\xc9\x05\xbc\xdeF\xdf?'
p918
tp919
Rp920
ag89
(g93
S'(\xaf\xa1\xbc\x86\xf2\xda?'
p921
tp922
Rp923
ag89
(g93
S'ffffff\xde?'
p924
tp925
Rp926
ag89
(g93
S'\x00\x00\x00\x00\x00\x00\x00\x00'
p927
tp928
Rp929
ag89
(g93
S'<\xc9RG\x88m\xda?'
p930
tp931
Rp932
ag89
(g93
S'\x9e\xd8\x89\x9d\xd8\x89\xdd?'
p933
tp934
Rp935
ag89
(g93
S'\x8d\xb0\xdc\xd3\x08\xcb\xdd?'
p936
tp937
Rp938
ag89
(g93
S'\xf2\x94 O\t\xf2\xd4?'
p939
tp940
Rp941
ag89
(g93
S'\xc3\xf5(\\\x8f\xc2\xd5?'
p942
tp943
Rp944
ag89
(g93
S'\x1f\xccP\xc5xz\xe0?'
p945
tp946
Rp947
ag89
(g93
S'\x00\x00\x00\x00\x00\x00\xe0?'
p948
tp949
Rp950
ag89
(g93
S'U\xcc\xad\xceH\xc5\xdc?'
p951
tp952
Rp953
ag89
(g93
S'\xd6a\x94\xa9x\xae\xd9?'
p954
tp955
Rp956
ag89
(g93
S'$\xadL\x9e\x80\xe8\xdc?'
p957
tp958
Rp959
ag89
(g93
S'\x00\x00\x00\x00\x00\x00\x00\x00'
p960
tp961
Rp962
ag89
(g93
S'\x8d\xb0\xdc\xd3\x08\xcb\xdd?'
p963
tp964
Rp965
ag89
(g93
S'EtJu\x17k\xe5?'
p966
tp967
Rp968
ag89
(g93
S'\x9e\xd8\x89\x9d\xd8\x89\xdd?'
p969
tp970
Rp971
ag89
(g93
S"z\x11'*O\x0b\xdd?"
p972
tp973
Rp974
ag89
(g93
S'<\xc9RG\x88m\xda?'
p975
tp976
Rp977
ag89
(g93
S'\xb0wL\r\xec\x1d\xe3?'
p978
tp979
Rp980
ag89
(g93
S'i\xf3>\xc5%C\xe0?'
p981
tp982
Rp983
ag89
(g93
S')\xd6\x8bb\xbd(\xe6?'
p984
tp985
Rp986
ag89
(g93
S'EtJu\x17k\xe5?'
p987
tp988
Rp989
ag89
(g93
S'\xb0wL\r\xec\x1d\xe3?'
p990
tp991
Rp992
ag89
(g93
S')\xd6\x8bb\xbd(\xe6?'
p993
tp994
Rp995
asS'P2 match wpo 2years surface'
p996
(lp997
F0.4186046511627907
aF0.0
aF0.6666666666666666
aF0.49206349206349204
aF0.4166666666666667
aF0.0
aF0.8
aF0.4146341463414634
aF0.5245901639344263
aF0.4090909090909091
aF0.5789473684210527
aF0.3333333333333333
aF0.5
aF0.6470588235294118
aF0.7045454545454546
aF0.47368421052631576
aF0.6666666666666666
aF0.36363636363636365
aF0.42857142857142855
aF0.5833333333333334
aF0.6833333333333333
aF0.46153846153846156
aF0.675
aF0.3333333333333333
aF0.6666666666666666
aF0.6463414634146342
aF0.5454545454545454
aF0.5245901639344263
aF0.4090909090909091
aF0.6941176470588235
aF0.23529411764705882
aF0.7045454545454546
aF0.37142857142857144
aF0.5833333333333334
aF0.6
aF0.6833333333333333
aF0.4375
aF0.9262295081967213
aF0.42857142857142855
aF0.5833333333333334
aF0.6292134831460674
aF0.7285714285714285
aF0.7653061224489796
aF0.6666666666666666
aF0.9333333333333333
aF0.7093023255813954
aF0.9333333333333333
aF0.41379310344827586
aF0.5211267605633803
aF0.38095238095238093
aF0.0
aF0.453125
aF0.36363636363636365
aF0.3
aF0.4583333333333333
aF0.4230769230769231
aF0.38461538461538464
aF0.4
aF0.375
aF0.41379310344827586
aF0.42857142857142855
aF0.1111111111111111
aF0.3333333333333333
aF0.453125
aF0.4230769230769231
aF0.38461538461538464
aF0.375
aF0.581081081081081
aF0.5211267605633803
aF0.4864864864864865
aF0.6417910447761194
aF0.5645161290322581
aF0.4864864864864865
aF0.4864864864864865
aF0.5263157894736842
aF0.42105263157894735
aF0.475
aF0.3870967741935484
aF0.4375
aF0.0
aF0.4909090909090909
aF0.4307692307692308
aF0.45
aF0.0
aF0.3181818181818182
aF0.7333333333333333
aF0.6666666666666666
aF0.3076923076923077
aF0.3
aF0.5616438356164384
aF0.5555555555555556
aF0.475
aF0.7108433734939759
aF0.7047619047619048
aF0.4307692307692308
aF0.45
aF0.5616438356164384
aF0.475
aF0.7333333333333333
aF0.475
asS'Player1 Rank'
p998
(lp999
F9.0
aF25.0
aF43.0
aF5.0
aF42.0
aF7.0
aF250.0
aF2.0
aF89.0
aF18.0
aF40.0
aF32.0
aF24.0
aF71.0
aF243.0
aF64.0
aF22.0
aF63.0
aF13.0
aF56.0
aF35.0
aF44.0
aF27.0
aF12.0
aF25.0
aF84.0
aF5.0
aF39.0
aF24.0
aF142.0
aF2.0
aF64.0
aF7.0
aF122.0
aF12.0
aF27.0
aF5.0
aF84.0
aF3.0
aF7.0
aF2.0
aF25.0
aF2.0
aF3.0
aF12.0
aF7.0
aF3.0
aF31.0
aF66.0
aF209.0
aF106.0
aF74.0
aF69.0
aF38.0
aF92.0
aF251.0
aF77.0
aF40.0
aF55.0
aF68.0
aF10.0
aF37.0
aF162.0
aF28.0
aF14.0
aF18.0
aF50.0
aF55.0
aF10.0
aF238.0
aF40.0
aF28.0
aF14.0
aF10.0
aF62.0
aF63.0
aF102.0
aF255.0
aF35.0
aF144.0
aF73.0
aF101.0
aF227.0
aF33.0
aF46.0
aF85.0
aF83.0
aF34.0
aF255.0
aF73.0
aF9.0
aF144.0
aF53.0
aF35.0
aF16.0
aF27.0
aF3.0
aF9.0
aF16.0
aF3.0
asS'Player1 Points'
p1000
(lp1001
F8.164794804244766
aF7.300472814267799
aF6.922643891475888
aF8.48673398393153
aF6.945051063725834
aF8.334471554600944
aF5.337538079701318
aF9.13830716907635
aF6.499787040655854
aF7.517520850603031
aF7.01211529430638
aF7.200424892944957
aF7.349230824613334
aF6.601230118728877
aF5.37989735354046
aF6.652863029353347
aF7.399398083331354
aF6.678342114654332
aF7.886081401775745
aF6.705639094860003
aF7.150701457592526
aF6.922643891475888
aF7.27931883541462
aF7.949797216161852
aF7.300472814267799
aF6.520621127558696
aF8.48673398393153
aF7.01211529430638
aF7.349230824613334
aF6.016157159698354
aF9.13830716907635
aF6.652863029353347
aF8.334471554600944
aF6.208590026096629
aF7.949797216161852
aF7.27931883541462
aF8.48673398393153
aF6.520621127558696
aF8.513185170018698
aF8.334471554600944
aF9.13830716907635
aF7.300472814267799
aF9.13830716907635
aF8.513185170018698
aF7.949797216161852
aF8.334471554600944
aF8.513185170018698
aF7.2115567333138015
aF6.638567789166521
aF5.564520407322694
aF6.324358962381311
aF6.556778356158042
aF6.621405651764134
aF7.064759027791802
aF6.4457198193855785
aF5.3471075307174685
aF6.529418838262226
aF6.9874902470009905
aF6.7226297948554485
aF6.6240652277998935
aF8.100161446936607
aF7.069023426578259
aF5.872117789475416
aF7.258412150595307
aF7.76004068088038
aF7.5126175446745105
aF6.807934943699926
aF6.7226297948554485
aF8.100161446936607
aF5.4116460518550396
aF6.9874902470009905
aF7.258412150595307
aF7.76004068088038
aF8.100161446936607
aF6.673297967767654
aF6.660575149839686
aF6.395261598115449
aF5.3230099791384085
aF7.081708586105575
aF6.023447592961033
aF6.573680166960646
aF6.406879986069314
aF5.493061443340548
aF7.166265974133638
aF6.882437470997847
aF6.484635235635252
aF6.499787040655854
aF7.166265974133638
aF5.3230099791384085
aF6.573680166960646
aF8.128585200374497
aF6.023447592961033
aF6.740519359606223
aF7.081708586105575
aF7.575584651557793
aF7.261927092702751
aF8.741935464094144
aF8.128585200374497
aF7.575584651557793
aF8.741935464094144
asS'P1 match wpo 2years surface'
p1002
(lp1003
F0.675
aF0.4375
aF0.3235294117647059
aF0.6885245901639344
aF0.37142857142857144
aF0.7623762376237624
aF0.0
aF0.7647058823529411
aF0.5277777777777778
aF0.5714285714285714
aF0.23529411764705882
aF0.5633802816901409
aF0.6292134831460674
aF0.5333333333333333
aF0.0
aF0.5
aF0.5584415584415584
aF0.42857142857142855
aF0.6941176470588235
aF0.5142857142857142
aF0.6
aF0.6
aF0.639344262295082
aF0.7285714285714285
aF0.4375
aF0.2857142857142857
aF0.6885245901639344
aF0.8
aF0.6292134831460674
aF0.6666666666666666
aF0.7647058823529411
aF0.5
aF0.7653061224489796
aF0.3333333333333333
aF0.7285714285714285
aF0.639344262295082
aF0.6885245901639344
aF0.2857142857142857
aF0.7045454545454546
aF0.7653061224489796
aF0.7647058823529411
aF0.4375
aF0.7647058823529411
aF0.7093023255813954
aF0.7352941176470589
aF0.7653061224489796
aF0.7093023255813954
aF0.5227272727272727
aF0.5294117647058824
aF0.42857142857142855
aF0.1111111111111111
aF0.391304347826087
aF0.4166666666666667
aF0.5116279069767442
aF0.4918032786885246
aF0.574468085106383
aF0.2857142857142857
aF0.375
aF0.3333333333333333
aF0.36363636363636365
aF0.5645161290322581
aF0.5211267605633803
aF0.3
aF0.581081081081081
aF0.6417910447761194
aF0.4864864864864865
aF0.4583333333333333
aF0.3333333333333333
aF0.5645161290322581
aF0.41379310344827586
aF0.375
aF0.581081081081081
aF0.6417910447761194
aF0.5645161290322581
aF0.5
aF0.3888888888888889
aF0.25
aF0.0
aF0.3
aF0.0
aF0.2916666666666667
aF0.1111111111111111
aF0.25
aF0.5616438356164384
aF0.5555555555555556
aF0.42105263157894735
aF0.5263157894736842
aF0.4307692307692308
aF0.0
aF0.2916666666666667
aF0.7047619047619048
aF0.0
aF0.45
aF0.3
aF0.6666666666666666
aF0.475
aF0.7333333333333333
aF0.7047619047619048
aF0.6666666666666666
aF0.7333333333333333
asS'P2 set wpo 2years surface'
p1004
(lp1005
g89
(g93
S'(\xaf\xa1\xbc\x86\xf2\xda?'
p1006
tp1007
Rp1008
ag89
(g93
S'\x00\x00\x00\x00\x00\x00\xd0?'
p1009
tp1010
Rp1011
ag89
(g93
S'\xd3\xd2\xd2\xd2\xd2\xd2\xe2?'
p1012
tp1013
Rp1014
ag89
(g93
S'\x00\x00\x00\x00\x00\x00\xe0?'
p1015
tp1016
Rp1017
ag89
(g93
S'\x1f|\xf0\xc1\x07\x1f\xdc?'
p1018
tp1019
Rp1020
ag89
(g93
S'UUUUUU\xd5?'
p1021
tp1022
Rp1023
ag89
(g93
S'z\xd3\x9b\xde\xf4\xa6\xe7?'
p1024
tp1025
Rp1026
ag89
(g93
S'\x9c\xc0\t\x9c\xc0\t\xdc?'
p1027
tp1028
Rp1029
ag89
(g93
S'\rX\xd2\xcb\x9f\xb6\xe0?'
p1030
tp1031
Rp1032
ag89
(g93
S'\xdb\xb6m\xdb\xb6m\xdb?'
p1033
tp1034
Rp1035
ag89
(g93
S'\x18\xab\xad\xbf=\xb0\xe1?'
p1036
tp1037
Rp1038
ag89
(g93
S"vb'vb'\xd6?"
p1039
tp1040
Rp1041
ag89
(g93
S'<\xfd\x11\x0b\xb8\xd3\xdf?'
p1042
tp1043
Rp1044
ag89
(g93
S'\x94>\xe9\x93>\xe9\xe3?'
p1045
tp1046
Rp1047
ag89
(g93
S'\nqV~B\x9c\xe5?'
p1048
tp1049
Rp1050
ag89
(g93
S'\xde,O"\xd3\xb0\xdd?'
p1051
tp1052
Rp1053
ag89
(g93
S'\xd7\xa3p=\n\xd7\xe3?'
p1054
tp1055
Rp1056
ag89
(g93
S'\xb4y\x9f\xe2\x92!\xd8?'
p1057
tp1058
Rp1059
ag89
(g93
S'\xd0!5\xc1x+\xdb?'
p1060
tp1061
Rp1062
ag89
(g93
S'\xa77\xbd\xe9Mo\xe2?'
p1063
tp1064
Rp1065
ag89
(g93
S'Q\xe9\xc8\x9e\x81\xa8\xe4?'
p1066
tp1067
Rp1068
ag89
(g93
S'\x1f|\xf0\xc1\x07\x1f\xdc?'
p1069
tp1070
Rp1071
ag89
(g93
S'\xb4Fk\xb4Fk\xe4?'
p1072
tp1073
Rp1074
ag89
(g93
S']AL\xae &\xd7?'
p1075
tp1076
Rp1077
ag89
(g93
S'\xd3\xd2\xd2\xd2\xd2\xd2\xe2?'
p1078
tp1079
Rp1080
ag89
(g93
S'\xec\xeb\xeb\xeb\xeb\xeb\xe3?'
p1081
tp1082
Rp1083
ag89
(g93
S'\x03\x99\x14/\x90I\xe1?'
p1084
tp1085
Rp1086
ag89
(g93
S'\rX\xd2\xcb\x9f\xb6\xe0?'
p1087
tp1088
Rp1089
ag89
(g93
S'\xdb\xb6m\xdb\xb6m\xdb?'
p1090
tp1091
Rp1092
ag89
(g93
S'U\xa3\x8fT\xa3\x8f\xe4?'
p1093
tp1094
Rp1095
ag89
(g93
S"\xd2'}\xd2'}\xd2?"
p1096
tp1097
Rp1098
ag89
(g93
S'\nqV~B\x9c\xe5?'
p1099
tp1100
Rp1101
ag89
(g93
S'a\xb9\xa7\x11\x96{\xda?'
p1102
tp1103
Rp1104
ag89
(g93
S'\xa77\xbd\xe9Mo\xe2?'
p1105
tp1106
Rp1107
ag89
(g93
S'\x96{\x1aa\xb9\xa7\xe1?'
p1108
tp1109
Rp1110
ag89
(g93
S'Q\xe9\xc8\x9e\x81\xa8\xe4?'
p1111
tp1112
Rp1113
ag89
(g93
S'\\\xbe\xe5[\xbe\xe5\xdb?'
p1114
tp1115
Rp1116
ag89
(g93
S'XY\x9c\xd1\xeea\xeb?'
p1117
tp1118
Rp1119
ag89
(g93
S'\xed\x1b\xd6\xbea\xed\xdb?'
p1120
tp1121
Rp1122
ag89
(g93
S'\xa77\xbd\xe9Mo\xe2?'
p1123
tp1124
Rp1125
ag89
(g93
S'333333\xe3?'
p1126
tp1127
Rp1128
ag89
(g93
S'\t\x1aN\xea\xbe<\xe6?'
p1129
tp1130
Rp1131
ag89
(g93
S'fY\x96eY\x96\xe5?'
p1132
tp1133
Rp1134
ag89
(g93
S'\xd7\xa3p=\n\xd7\xe3?'
p1135
tp1136
Rp1137
ag89
(g93
S'\xe2\xf9\xbab\xa3\xa1\xeb?'
p1138
tp1139
Rp1140
ag89
(g93
S'\x8c\xe2\\\xc7(\xce\xe5?'
p1141
tp1142
Rp1143
ag89
(g93
S'\xe2\xf9\xbab\xa3\xa1\xeb?'
p1144
tp1145
Rp1146
ag89
(g93
S'\xf9\xac\x1bL\x91\xcf\xda?'
p1147
tp1148
Rp1149
ag89
(g93
S'\xba\xe8\xa2\x8b.\xba\xe0?'
p1150
tp1151
Rp1152
ag89
(g93
S'\x92$I\x92$I\xda?'
p1153
tp1154
Rp1155
aF0.0
ag89
(g93
S'\x909J\xb7\xaf\xac\xde?'
p1156
tp1157
Rp1158
ag89
(g93
S'(\xaf\xa1\xbc\x86\xf2\xda?'
p1159
tp1160
Rp1161
ag89
(g93
S'\xb7m\xdb\xb6m\xdb\xd6?'
p1162
tp1163
Rp1164
ag89
(g93
S'\x10>\xf8\xe0\x83\x0f\xde?'
p1165
tp1166
Rp1167
ag89
(g93
S'\x9a\x99\x99\x99\x99\x99\xd9?'
p1168
tp1169
Rp1170
ag89
(g93
S'\x9a\x99\x99\x99\x99\x99\xd9?'
p1171
tp1172
Rp1173
ag89
(g93
S'\xb7m\xdb\xb6m\xdb\xd6?'
p1174
tp1175
Rp1176
ag89
(g93
S'\xcd\xcc\xcc\xcc\xcc\xcc\xdc?'
p1177
tp1178
Rp1179
ag89
(g93
S'\xf9\xac\x1bL\x91\xcf\xda?'
p1180
tp1181
Rp1182
ag89
(g93
S'(\xaf\xa1\xbc\x86\xf2\xda?'
p1183
tp1184
Rp1185
ag89
(g93
S'\x00\x00\x00\x00\x00\x00\xd0?'
p1186
tp1187
Rp1188
ag89
(g93
S'\xaay\x90\xbb~\xb6\xd8?'
p1189
tp1190
Rp1191
ag89
(g93
S'\x909J\xb7\xaf\xac\xde?'
p1192
tp1193
Rp1194
ag89
(g93
S'\x9a\x99\x99\x99\x99\x99\xd9?'
p1195
tp1196
Rp1197
ag89
(g93
S'\x9a\x99\x99\x99\x99\x99\xd9?'
p1198
tp1199
Rp1200
ag89
(g93
S'\xdb\xb6m\xdb\xb6m\xdb?'
p1201
tp1202
Rp1203
ag89
(g93
S'\xc3b$\x946\xde\xe1?'
p1204
tp1205
Rp1206
ag89
(g93
S'\xba\xe8\xa2\x8b.\xba\xe0?'
p1207
tp1208
Rp1209
ag89
(g93
S'q=\n\xd7\xa3p\xdd?'
p1210
tp1211
Rp1212
ag89
(g93
S'\xda\x05\xc4\xa6\xd2\x90\xe3?'
p1213
tp1214
Rp1215
ag89
(g93
S'@=S\xb9\xeex\xe1?'
p1216
tp1217
Rp1218
ag89
(g93
S'q=\n\xd7\xa3p\xdd?'
p1219
tp1220
Rp1221
ag89
(g93
S'q=\n\xd7\xa3p\xdd?'
p1222
tp1223
Rp1224
ag89
(g93
S'\x00\x00\x00\x00\x00\x00\xe0?'
p1225
tp1226
Rp1227
ag89
(g93
S'\xa4\x16!\x7f\xcd\x8e\xda?'
p1228
tp1229
Rp1230
ag89
(g93
S'\xde\xdd\xdd\xdd\xdd\xdd\xdd?'
p1231
tp1232
Rp1233
ag89
(g93
S'\xc2\xf9\x18\x9c\x8f\xc1\xd9?'
p1234
tp1235
Rp1236
ag89
(g93
S'=\xcf\xf3<\xcf\xf3\xdc?'
p1237
tp1238
Rp1239
aF0.0
ag89
(g93
S'\xb8\x1e\x85\xebQ\xb8\xde?'
p1240
tp1241
Rp1242
ag89
(g93
S'\xa7B\xb4\xe1\xf3\xc7\xdc?'
p1243
tp1244
Rp1245
ag89
(g93
S'/\xa7\xe0\xe5\x14\xbc\xdc?'
p1246
tp1247
Rp1248
ag89
(g93
S'\x1c\xc7q\x1c\xc7q\xcc?'
p1249
tp1250
Rp1251
ag89
(g93
S'\xdb\xb6m\xdb\xb6m\xdb?'
p1252
tp1253
Rp1254
ag89
(g93
S'\x8d\xf5\xa1\xb1>4\xe6?'
p1255
tp1256
Rp1257
ag89
(g93
S'333333\xe3?'
p1258
tp1259
Rp1260
ag89
(g93
S'\x00\x00\x00\x00\x00\x00\xd4?'
p1261
tp1262
Rp1263
ag89
(g93
S'Lg1\x9d\xc5t\xd6?'
p1264
tp1265
Rp1266
ag89
(g93
S'\x83\x98\\AL\xae\xe0?'
p1267
tp1268
Rp1269
ag89
(g93
S'q\xf5\x83\x8e\n|\xe1?'
p1270
tp1271
Rp1272
ag89
(g93
S'\xde\xdd\xdd\xdd\xdd\xdd\xdd?'
p1273
tp1274
Rp1275
ag89
(g93
S'4R1\xb7:#\xe5?'
p1276
tp1277
Rp1278
ag89
(g93
S'\x04T9B?@\xe5?'
p1279
tp1280
Rp1281
ag89
(g93
S'\xa7B\xb4\xe1\xf3\xc7\xdc?'
p1282
tp1283
Rp1284
ag89
(g93
S'/\xa7\xe0\xe5\x14\xbc\xdc?'
p1285
tp1286
Rp1287
ag89
(g93
S'\x83\x98\\AL\xae\xe0?'
p1288
tp1289
Rp1290
ag89
(g93
S'\xde\xdd\xdd\xdd\xdd\xdd\xdd?'
p1291
tp1292
Rp1293
ag89
(g93
S'\x8d\xf5\xa1\xb1>4\xe6?'
p1294
tp1295
Rp1296
ag89
(g93
S'\xde\xdd\xdd\xdd\xdd\xdd\xdd?'
p1297
tp1298
Rp1299
asS'Player2 Inv. Odds'
p1300
(lp1301
g89
(g93
S'1\xcb$f\xb4\xe1\xb6?'
p1302
tp1303
Rp1304
ag89
(g93
S'g\xac\xc9a\xb6\xb7\xcb?'
p1305
tp1306
Rp1307
ag89
(g93
S'\xa6\x19\xff\x11\x98\x1e\xec?'
p1308
tp1309
Rp1310
ag89
(g93
S'#\x9dM\x9d@O\xbb?'
p1311
tp1312
Rp1313
ag89
(g93
S'Y\x96eY\x96e\xd9?'
p1314
tp1315
Rp1316
ag89
(g93
S']0\x96f\x8f6\xb5?'
p1317
tp1318
Rp1319
ag89
(g93
S'3\xf4/m\x04\x0e\xe7?'
p1320
tp1321
Rp1322
ag89
(g93
S'\xdf\xb1\xac\x9b\xb0\xcd\xaa?'
p1323
tp1324
Rp1325
ag89
(g93
S'\xb9\xd5\x19\xa9\x98[\xed?'
p1326
tp1327
Rp1328
ag89
(g93
S'/\x06\xef%\x822\xca?'
p1329
tp1330
Rp1331
ag89
(g93
S'pth\x92\x7f\xc1\xea?'
p1332
tp1333
Rp1334
ag89
(g93
S'\x91\x06i\x90\x06i\xe0?'
p1335
tp1336
Rp1337
ag89
(g93
S'\x94\x83\xccK\x89\xe0\xd1?'
p1338
tp1339
Rp1340
ag89
(g93
S'\xd1(\xf13J\xfc\xec?'
p1341
tp1342
Rp1343
ag89
(g93
S'p~\xa6f\xbcK\xef?'
p1344
tp1345
Rp1346
ag89
(g93
S'=\xad`\xa9O+\xe8?'
p1347
tp1348
Rp1349
ag89
(g93
S'\xe8\x03\xaacom\xe8?'
p1350
tp1351
Rp1352
ag89
(g93
S'\xf2{\x19\xf2{\x19\xe2?'
p1353
tp1354
Rp1355
ag89
(g93
S'].\xddb\x14\x8d\xd6?'
p1356
tp1357
Rp1358
ag89
(g93
S'\xce\xefx7\xc9\x88\xe5?'
p1359
tp1360
Rp1361
ag89
(g93
S'9 2\xdc\xab`\xe6?'
p1362
tp1363
Rp1364
ag89
(g93
S'N\xec\xc4N\xec\xc4\xde?'
p1365
tp1366
Rp1367
ag89
(g93
S'f\xe0\xe9\xd6\xfc\xb0\xe8?'
p1368
tp1369
Rp1370
ag89
(g93
S'_\xfb\xb6\xab\xe6\xd5\xc5?'
p1371
tp1372
Rp1373
ag89
(g93
S'\x9a\x99\x99\x99\x99\x99\xe9?'
p1374
tp1375
Rp1376
ag89
(g93
S')\xaa\x07\x8d\xbc\xf3\xe7?'
p1377
tp1378
Rp1379
ag89
(g93
S'\x0eq\x95)`>\xc0?'
p1380
tp1381
Rp1382
ag89
(g93
S'\xbcHg+$\x1e\xe9?'
p1383
tp1384
Rp1385
ag89
(g93
S'D\x1a5\xde\x89\xbf\xd1?'
p1386
tp1387
Rp1388
ag89
(g93
S'\xef\xea\x9b\xe4\xfdu\xd0?'
p1389
tp1390
Rp1391
ag89
(g93
S'\x11\xf1\xab\xe0\x87\xc4\xa6?'
p1392
tp1393
Rp1394
ag89
(g93
S'\x8c\xc8Kv\x80\xe1\xec?'
p1395
tp1396
Rp1397
ag89
(g93
S'"\xa3\xeb7mH\xc3?'
p1398
tp1399
Rp1400
ag89
(g93
S'\x95?\xea\x94?\xea\xe4?'
p1401
tp1402
Rp1403
ag89
(g93
S'/\xcbC\xb8c\xa2\xc8?'
p1404
tp1405
Rp1406
ag89
(g93
S'\x83\xf318\x1f\x83\xe3?'
p1407
tp1408
Rp1409
ag89
(g93
S'\xaa\xa9\x84\xbd\x0e\x15\xbe?'
p1410
tp1411
Rp1412
ag89
(g93
S'\xaf\x9c\xb9e\xbf!\xee?'
p1413
tp1414
Rp1415
ag89
(g93
S'}/\x85\xdc\xbc\x0e\xc1?'
p1416
tp1417
Rp1418
ag89
(g93
S'\xee\x81\x8e1S\x0c\xd0?'
p1419
tp1420
Rp1421
ag89
(g93
S't\xb9\xde\x8a\x07/\xc6?'
p1422
tp1423
Rp1424
ag89
(g93
S'\xb1\xd4\xd0\xb5\xf8\xcc\xea?'
p1425
tp1426
Rp1427
ag89
(g93
S'\xde\xf5d\xcai\xad\xc7?'
p1428
tp1429
Rp1430
ag89
(g93
S'8K\xaf\t2-\xe4?'
p1431
tp1432
Rp1433
ag89
(g93
S' \xc1}\x04\xf7\x11\xec?'
p1434
tp1435
Rp1436
ag89
(g93
S'\x8cC"n\xbd\x97\xde?'
p1437
tp1438
Rp1439
ag89
(g93
S'\xf3<\xcf\xf3<\xcf\xe7?'
p1440
tp1441
Rp1442
ag89
(g93
S'_0\xddN\x00A\xe3?'
p1443
tp1444
Rp1445
ag89
(g93
S'U\x16g\xb4{\xd8\xea?'
p1446
tp1447
Rp1448
ag89
(g93
S'\x84O\xc9xH\xf8\xe4?'
p1449
tp1450
Rp1451
ag89
(g93
S'\x1aW\x8e\x1aW\x8e\xda?'
p1452
tp1453
Rp1454
ag89
(g93
S'\x94\xc0\x94\xc0\x94\xc0\xe4?'
p1455
tp1456
Rp1457
ag89
(g93
S'V\xbe\xb1\xf0\xb5\xdb\xde?'
p1458
tp1459
Rp1460
ag89
(g93
S'\xeeh\xc6\x81?\xa7\xd8?'
p1461
tp1462
Rp1463
ag89
(g93
S'\xe4\r\xfb\xaaVp\xdd?'
p1464
tp1465
Rp1466
ag89
(g93
S':#x\xe7\xf0\xa7\xe3?'
p1467
tp1468
Rp1469
ag89
(g93
S'\xa6\xbb\xb2\x01\xb4\x88\xea?'
p1470
tp1471
Rp1472
ag89
(g93
S'\xe9>i\x01\xf4e\xcd?'
p1473
tp1474
Rp1475
ag89
(g93
S'\x92\x05\xe5\xfb\xddS\xe2?'
p1476
tp1477
Rp1478
ag89
(g93
S'Y\xfc\xabsd\x06\xe3?'
p1479
tp1480
Rp1481
ag89
(g93
S'\xfe\xea~\xc10\xd3\xcf?'
p1482
tp1483
Rp1484
ag89
(g93
S'~0\x9a\xc7\xc2\xbe\xd0?'
p1485
tp1486
Rp1487
ag89
(g93
S'4P\xac\x1fC)\xe2?'
p1488
tp1489
Rp1490
ag89
(g93
S'd5{\x92\xefc\xd5?'
p1491
tp1492
Rp1493
ag89
(g93
S'\xa6\xe1\xc3R\x0b/\xcd?'
p1494
tp1495
Rp1496
ag89
(g93
S'"pf\xb7\xa9\xc1\xd7?'
p1497
tp1498
Rp1499
ag89
(g93
S'\xf0\x13\xb8\x15\xcd@\xe6?'
p1500
tp1501
Rp1502
ag89
(g93
S'\xd8\x89\x9d\xd8\x89\x9d\xe8?'
p1503
tp1504
Rp1505
ag89
(g93
S'\x18\x16\x84\x86)\x9c\xdb?'
p1506
tp1507
Rp1508
ag89
(g93
S'\x95\xc0\x94\xc0\x94\xc0\xe4?'
p1509
tp1510
Rp1511
ag89
(g93
S'\xf0\x13\xb8\x15\xcd@\xe6?'
p1512
tp1513
Rp1514
ag89
(g93
S'\xdd\xd7\x80\x0e\x93\x14\xe5?'
p1515
tp1516
Rp1517
ag89
(g93
S'\x85\xd6wP\x89\x01\xd8?'
p1518
tp1519
Rp1520
ag89
(g93
S'\xa0T\x98x?r\xda?'
p1521
tp1522
Rp1523
ag89
(g93
S'P\x1d@\xcc^\x9f\xdc?'
p1524
tp1525
Rp1526
ag89
(g93
S'Z\x807\xb0"\xae\xe5?'
p1527
tp1528
Rp1529
ag89
(g93
S'\x8fQ\x0b\xdee\xce\xe4?'
p1530
tp1531
Rp1532
ag89
(g93
S'\xf3k\x0f\xb9\xac\x18\xe8?'
p1533
tp1534
Rp1535
ag89
(g93
S'\xe4\xe6\x1b\xa8a\xcc\xe5?'
p1536
tp1537
Rp1538
ag89
(g93
S'\n\xf6l\xeeeJ\xcd?'
p1539
tp1540
Rp1541
ag89
(g93
S'S\xe1\xe3\xd0\x14\xd3\xe6?'
p1542
tp1543
Rp1544
ag89
(g93
S'\xa1g0\xae\x0fN\xe5?'
p1545
tp1546
Rp1547
ag89
(g93
S'!:\xdc\x9f\x9dw\xe1?'
p1548
tp1549
Rp1550
ag89
(g93
S'\xdb\x02\x82~\r8\xd0?'
p1551
tp1552
Rp1553
ag89
(g93
S'"Z\\\xae\x88\x16\xd7?'
p1554
tp1555
Rp1556
ag89
(g93
S'\x04\x9aB\xa0)\x04\xea?'
p1557
tp1558
Rp1559
ag89
(g93
S'\xce\x8eZ\x84\xfc5\xeb?'
p1560
tp1561
Rp1562
ag89
(g93
S'N2>\xa1%_\xd8?'
p1563
tp1564
Rp1565
ag89
(g93
S'\xadlu\x01\xc2\xca\xe6?'
p1566
tp1567
Rp1568
ag89
(g93
S'v\xd7]w\xddu\xe7?'
p1569
tp1570
Rp1571
ag89
(g93
S'0k\xa3*\xf7;\xd5?'
p1572
tp1573
Rp1574
ag89
(g93
S'=\xad`\xa9O+\xe8?'
p1575
tp1576
Rp1577
ag89
(g93
S'\xd2g\x96m\xc9\xba\xeb?'
p1578
tp1579
Rp1580
ag89
(g93
S'\\\xb6l\xd9\xb2e\xeb?'
p1581
tp1582
Rp1583
ag89
(g93
S'M\x83\xb0\x81\xf6\x1c\xd4?'
p1584
tp1585
Rp1586
ag89
(g93
S'\x0e\xca\xfd\x16D\xa2\xdb?'
p1587
tp1588
Rp1589
ag89
(g93
S'\x0b\xbbS\x9aDQ\xcd?'
p1590
tp1591
Rp1592
ag89
(g93
S'e\xe0\xe9\xd6\xfc\xb0\xd8?'
p1593
tp1594
Rp1595
ag89
(g93
S'\x98\xfa!\x98\xfa!\xe8?'
p1596
tp1597
Rp1598
ag89
(g93
S'W!\xf7\xf8\xaa\x1d\xd3?'
p1599
tp1600
Rp1601
asS'Player2 Name'
p1602
(lp1603
VStakhovsky S.
p1604
aVChiudinelli M.
p1605
ag80
ag46
ag44
ag65
aVCarreno Busta P.
p1606
aVGranollers M.
p1607
ag51
ag73
ag60
aVDonaldson J.
p1608
aVChardy J.
p1609
aVKyrgios N.
p1610
ag35
aVZverev A.
p1611
ag29
ag43
aVFognini F.
p1612
aVKarlovic I.
p1613
aVTsonga J.W.
p1614
aVHarrison R.
p1615
aVCilic M.
p1616
aVAlmagro N.
p1617
ag83
aVIsner J.
p1618
aVKuznetsov An.
p1619
ag51
aVSousa J.
p1620
aVFerrer D.
p1621
ag79
ag35
ag59
ag1613
aVBaghdatis M.
p1622
ag1614
ag4
aVDjokovic N.
p1623
ag56
aVKarlovic I.
p1624
aVDimitrov G.
p1625
ag26
ag8
aVDel Potro J.M.
p1626
ag1623
ag35
aVDjokovic N.
p1627
aVBenneteau J.
p1628
ag52
ag1617
aVBarrere G.
p1629
aVGarcia-Lopez G.
p1630
aVBrown D.
p1631
aVMillot V.
p1632
ag20
aVStruff J.L.
p1633
aVHerbert P.H.
p1634
aVHalys Q.
p1635
aVDodig I.
p1636
ag1628
aVGojowczyk P.
p1637
aVBasilashvili N.
p1638
ag49
aVGarcia-Lopez G.
p1639
aVStruff J.L.
p1640
aVHerbert P.H.
p1641
ag7
ag54
aVMuller G.
p1642
ag4
ag55
ag51
ag4
ag4
aVBerankis R.
p1643
aVRosol L.
p1644
ag81
aVRamos-Vinolas A.
p1645
aVZverev M.
p1646
aVBublik A.
p1647
aVVerdasco F.
p1648
ag73
ag78
aVElias G.
p1649
aVDonskoy E.
p1650
ag35
ag80
aVRublev A.
p1651
ag13
ag70
ag1619
ag81
aVRaonic M.
p1652
ag76
ag1620
aVYouzhny M.
p1653
ag14
ag81
ag35
ag81
asS'P1 match wpo 6months'
p1654
(lp1655
F0.6687116564417178
aF0.4925373134328358
aF0.4649122807017544
aF0.7758620689655172
aF0.4772727272727273
aF0.7921348314606742
aF0.26666666666666666
aF0.8
aF0.375
aF0.5759493670886076
aF0.4
aF0.5495495495495496
aF0.6419753086419753
aF0.39473684210526316
aF0.0
aF0.4782608695652174
aF0.5314685314685315
aF0.358974358974359
aF0.6994535519125683
aF0.4727272727272727
aF0.5906040268456376
aF0.5483870967741935
aF0.624
aF0.7089552238805971
aF0.4925373134328358
aF0.3333333333333333
aF0.7758620689655172
aF0.6470588235294118
aF0.6419753086419753
aF0.6470588235294118
aF0.8
aF0.4782608695652174
aF0.7921348314606742
aF0.3076923076923077
aF0.7089552238805971
aF0.624
aF0.7758620689655172
aF0.3333333333333333
aF0.71875
aF0.7921348314606742
aF0.8
aF0.4925373134328358
aF0.8
aF0.71875
aF0.7089552238805971
aF0.7921348314606742
aF0.71875
aF0.5643564356435643
aF0.4
aF0.3888888888888889
aF0.3333333333333333
aF0.42592592592592593
aF0.45454545454545453
aF0.4818181818181818
aF0.4728682170542636
aF0.5775862068965517
aF0.35135135135135137
aF0.4777777777777778
aF0.39473684210526316
aF0.4520547945205479
aF0.6234567901234568
aF0.5514018691588785
aF0.2727272727272727
aF0.5675675675675675
aF0.6148148148148148
aF0.5138888888888888
aF0.38095238095238093
aF0.39473684210526316
aF0.6234567901234568
aF0.45588235294117646
aF0.4777777777777778
aF0.5675675675675675
aF0.6148148148148148
aF0.6234567901234568
aF0.4782608695652174
aF0.39655172413793105
aF0.42857142857142855
aF0.0
aF0.41025641025641024
aF0.4
aF0.43820224719101125
aF0.21052631578947367
aF0.29411764705882354
aF0.5486725663716814
aF0.5068493150684932
aF0.4409448818897638
aF0.3793103448275862
aF0.453416149068323
aF0.0
aF0.43820224719101125
aF0.7098445595854922
aF0.4
aF0.41836734693877553
aF0.41025641025641024
aF0.6296296296296297
aF0.5384615384615384
aF0.7305389221556886
aF0.7098445595854922
aF0.6296296296296297
aF0.7305389221556886
asS'P1 match wpo 2years'
p1656
(lp1657
F0.6581196581196581
aF0.515625
aF0.45454545454545453
aF0.752
aF0.5166666666666667
aF0.7816901408450704
aF0.26666666666666666
aF0.8209876543209876
aF0.3877551020408163
aF0.5603448275862069
aF0.38596491228070173
aF0.5462962962962963
aF0.6033057851239669
aF0.39473684210526316
aF0.0
aF0.4782608695652174
aF0.5431034482758621
aF0.37142857142857144
aF0.6865671641791045
aF0.48314606741573035
aF0.5818181818181818
aF0.5641025641025641
aF0.6382978723404256
aF0.7142857142857143
aF0.515625
aF0.3333333333333333
aF0.752
aF0.6470588235294118
aF0.6033057851239669
aF0.6470588235294118
aF0.8209876543209876
aF0.4782608695652174
aF0.7841726618705036
aF0.32
aF0.7142857142857143
aF0.6382978723404256
aF0.752
aF0.3333333333333333
aF0.7099236641221374
aF0.7841726618705036
aF0.8209876543209876
aF0.515625
aF0.8209876543209876
aF0.7131782945736435
aF0.7184466019417476
aF0.7841726618705036
aF0.7131782945736435
aF0.5394736842105263
aF0.4
aF0.375
aF0.3333333333333333
aF0.44
aF0.49122807017543857
aF0.5176470588235295
aF0.4946236559139785
aF0.5652173913043478
aF0.35135135135135137
aF0.5263157894736842
aF0.375
aF0.4583333333333333
aF0.6461538461538462
aF0.5523809523809524
aF0.2727272727272727
aF0.6
aF0.6403508771929824
aF0.5362318840579711
aF0.39473684210526316
aF0.375
aF0.6461538461538462
aF0.38235294117647056
aF0.5263157894736842
aF0.6
aF0.6403508771929824
aF0.6461538461538462
aF0.5045045045045045
aF0.39622641509433965
aF0.46153846153846156
aF0.0
aF0.4
aF0.4
aF0.4393939393939394
aF0.1875
aF0.29411764705882354
aF0.5454545454545454
aF0.5161290322580645
aF0.3977272727272727
aF0.39215686274509803
aF0.475
aF0.0
aF0.4393939393939394
aF0.7034482758620689
aF0.4
aF0.4142857142857143
aF0.4
aF0.6296296296296297
aF0.5487804878048781
aF0.7293233082706767
aF0.7034482758620689
aF0.6296296296296297
aF0.7293233082706767
asS'Surface'
p1658
(lp1659
VHard
p1660
ag1660
ag1660
ag1660
ag1660
ag1660
ag1660
ag1660
ag1660
ag1660
ag1660
ag1660
ag1660
ag1660
ag1660
ag1660
ag1660
ag1660
ag1660
ag1660
ag1660
ag1660
ag1660
ag1660
ag1660
ag1660
ag1660
ag1660
ag1660
ag1660
ag1660
ag1660
ag1660
ag1660
ag1660
ag1660
ag1660
ag1660
ag1660
ag1660
ag1660
ag1660
ag1660
ag1660
ag1660
ag1660
ag1660
ag1660
ag1660
ag1660
ag1660
ag1660
ag1660
ag1660
ag1660
ag1660
ag1660
ag1660
ag1660
ag1660
ag1660
ag1660
ag1660
ag1660
ag1660
ag1660
ag1660
ag1660
ag1660
ag1660
ag1660
ag1660
ag1660
ag1660
ag1660
ag1660
ag1660
ag1660
ag1660
ag1660
ag1660
ag1660
ag1660
ag1660
ag1660
ag1660
ag1660
ag1660
ag1660
ag1660
ag1660
ag1660
ag1660
ag1660
ag1660
ag1660
ag1660
ag1660
ag1660
ag1660
asS'P2 set wpo 2years'
p1661
(lp1662
g89
(g93
S']w\xbc\xd8\x12|\xdb?'
p1663
tp1664
Rp1665
ag89
(g93
S'%I\x92$I\x92\xd4?'
p1666
tp1667
Rp1668
ag89
(g93
S'\x00\x00\x00\x00\x00\x00\xe3?'
p1669
tp1670
Rp1671
ag89
(g93
S's\x10p\xeb\xb3\x19\xdf?'
p1672
tp1673
Rp1674
ag89
(g93
S'\xcb\xe2\x8cv\x0f[\xdf?'
p1675
tp1676
Rp1677
ag89
(g93
S'GX\xeei\x84\xe5\xde?'
p1678
tp1679
Rp1680
ag89
(g93
S'\x82\xa8td\xcf@\xe4?'
p1681
tp1682
Rp1683
ag89
(g93
S'\x05/\xa7\xe0\xe5\x14\xdc?'
p1684
tp1685
Rp1686
ag89
(g93
S'h\xc9\xfdx\xd4\xa0\xe2?'
p1687
tp1688
Rp1689
ag89
(g93
S'\x1c=\xc1\xd1\x13\x1c\xdd?'
p1690
tp1691
Rp1692
ag89
(g93
S'\x00\x00\x00\x00\x00\x00\xe2?'
p1693
tp1694
Rp1695
ag89
(g93
S'\xc9\x10\xac\xa3\xcd\xfb\xd4?'
p1696
tp1697
Rp1698
ag89
(g93
S'\x82gPE!l\xdf?'
p1699
tp1700
Rp1701
ag89
(g93
S'\xcfF}g\xa3\xbe\xe3?'
p1702
tp1703
Rp1704
ag89
(g93
S'@\xed\x9d\xd7g\xd0\xe5?'
p1705
tp1706
Rp1707
ag89
(g93
S'\x84\x10B\x08!\x84\xe0?'
p1708
tp1709
Rp1710
ag89
(g93
S']V\x0c\x94\xf0F\xe3?'
p1711
tp1712
Rp1713
ag89
(g93
S'\xed9\x99\xbeJ\x18\xdb?'
p1714
tp1715
Rp1716
ag89
(g93
S'!\xd0\x14\x02M!\xe0?'
p1717
tp1718
Rp1719
ag89
(g93
S'#\nL:5\x0f\xe2?'
p1720
tp1721
Rp1722
ag89
(g93
S'\x94k\x94k\x94k\xe4?'
p1723
tp1724
Rp1725
ag89
(g93
S'Zas \xd1\n\xdb?'
p1726
tp1727
Rp1728
ag89
(g93
S'+\xa7\x05m\xed\xe2\xe3?'
p1729
tp1730
Rp1731
ag89
(g93
S'8\xa9\xfb\xf2\xd8\x8a\xe0?'
p1732
tp1733
Rp1734
ag89
(g93
S'\x00\x00\x00\x00\x00\x00\xe3?'
p1735
tp1736
Rp1737
ag89
(g93
S'-\xff\x86\x84\x19\xa7\xe3?'
p1738
tp1739
Rp1740
ag89
(g93
S'\xbd\x86\xf2\x1a\xcak\xe0?'
p1741
tp1742
Rp1743
ag89
(g93
S'\x9d.M\xf5\x91o\xe2?'
p1744
tp1745
Rp1746
ag89
(g93
S'\x1c=\xc1\xd1\x13\x1c\xdd?'
p1747
tp1748
Rp1749
ag89
(g93
S':\xe3$\xca*2\xe4?'
p1750
tp1751
Rp1752
ag89
(g93
S'\xd2y\x8b!\x9d\xb7\xd8?'
p1753
tp1754
Rp1755
ag89
(g93
S'@\xed\x9d\xd7g\xd0\xe5?'
p1756
tp1757
Rp1758
ag89
(g93
S'wc\xdf#r\x82\xe0?'
p1759
tp1760
Rp1761
ag89
(g93
S'#\nL:5\x0f\xe2?'
p1762
tp1763
Rp1764
ag89
(g93
S'\x08*g\xb7\xf0\xab\xe1?'
p1765
tp1766
Rp1767
ag89
(g93
S'\x94k\x94k\x94k\xe4?'
p1768
tp1769
Rp1770
ag89
(g93
S'\xce\x9f\xe5\xfcY\xce\xdf?'
p1771
tp1772
Rp1773
ag89
(g93
S'(:\xdd\xad\x9a\xfa\xea?'
p1774
tp1775
Rp1776
ag89
(g93
S'v\xd9e\x97]v\xd9?'
p1777
tp1778
Rp1779
ag89
(g93
S'#\nL:5\x0f\xe2?'
p1780
tp1781
Rp1782
ag89
(g93
S'.yW\xad\xd8\x8e\xe2?'
p1783
tp1784
Rp1785
ag89
(g93
S'\xd6\\\xcd\xd5\\\xcd\xe5?'
p1786
tp1787
Rp1788
ag89
(g93
S'N6\xd9d\x93M\xe6?'
p1789
tp1790
Rp1791
ag89
(g93
S']V\x0c\x94\xf0F\xe3?'
p1792
tp1793
Rp1794
ag89
(g93
S'.~\x08\x83\x9c%\xeb?'
p1795
tp1796
Rp1797
ag89
(g93
S'\x16_\xf1\x15_\xf1\xe5?'
p1798
tp1799
Rp1800
ag89
(g93
S'.~\x08\x83\x9c%\xeb?'
p1801
tp1802
Rp1803
ag89
(g93
S'\x9e\xf1\x8cg<\xe3\xd9?'
p1804
tp1805
Rp1806
ag89
(g93
S'\xbb\x85_\x8d\x89\xf4\xe0?'
p1807
tp1808
Rp1809
ag89
(g93
S'\xc8\x9d%\xec\xe6\xb7\xe0?'
p1810
tp1811
Rp1812
ag89
(g93
S'\x00\x00\x00\x00\x00\x00\x00\x00'
p1813
tp1814
Rp1815
ag89
(g93
S'.\xfeQ\x96\x93\x0e\xe0?'
p1816
tp1817
Rp1818
ag89
(g93
S'\x8c.\xba\xe8\xa2\x8b\xde?'
p1819
tp1820
Rp1821
ag89
(g93
S'F\x17]t\xd1E\xd7?'
p1822
tp1823
Rp1824
ag89
(g93
S';\xb1\x13;\xb1\x13\xdb?'
p1825
tp1826
Rp1827
ag89
(g93
S'\x88\x87\x87\x87\x87\x87\xd7?'
p1828
tp1829
Rp1830
ag89
(g93
S'\x00\x00\x00\x00\x00\x00\xda?'
p1831
tp1832
Rp1833
ag89
(g93
S'%I\x92$I\x92\xd4?'
p1834
tp1835
Rp1836
ag89
(g93
S'=\xcf\xf3<\xcf\xf3\xdc?'
p1837
tp1838
Rp1839
ag89
(g93
S'\x9e\xf1\x8cg<\xe3\xd9?'
p1840
tp1841
Rp1842
ag89
(g93
S'\x18\x86a\x18\x86a\xd8?'
p1843
tp1844
Rp1845
ag89
(g93
S'\x89\x88\x88\x88\x88\x88\xd8?'
p1846
tp1847
Rp1848
ag89
(g93
S'\xfa\xf9\xf9\xf9\xf9\xf9\xd9?'
p1849
tp1850
Rp1851
ag89
(g93
S'.\xfeQ\x96\x93\x0e\xe0?'
p1852
tp1853
Rp1854
ag89
(g93
S'\x88\x87\x87\x87\x87\x87\xd7?'
p1855
tp1856
Rp1857
ag89
(g93
S'\x00\x00\x00\x00\x00\x00\xda?'
p1858
tp1859
Rp1860
ag89
(g93
S'\x1eS\x03{\xc7\xd4\xe0?'
p1861
tp1862
Rp1863
ag89
(g93
S'5\xc1x+\xfb\x1c\xe2?'
p1864
tp1865
Rp1866
ag89
(g93
S'\xbb\x85_\x8d\x89\xf4\xe0?'
p1867
tp1868
Rp1869
ag89
(g93
S'\x16\xd0\xb8[\xe7\x15\xe0?'
p1870
tp1871
Rp1872
ag89
(g93
S'h\xd3\x806\rh\xe3?'
p1873
tp1874
Rp1875
ag89
(g93
S'\xc5\x12K,\xb1\xc4\xe2?'
p1876
tp1877
Rp1878
ag89
(g93
S'\x16\xd0\xb8[\xe7\x15\xe0?'
p1879
tp1880
Rp1881
ag89
(g93
S'\x16\xd0\xb8[\xe7\x15\xe0?'
p1882
tp1883
Rp1884
ag89
(g93
S'\x0f\xe8\xc6<}\xb4\xda?'
p1885
tp1886
Rp1887
ag89
(g93
S'\xbecj`\xef\x98\xda?'
p1888
tp1889
Rp1890
ag89
(g93
S'*;L]n\x7f\xe0?'
p1891
tp1892
Rp1893
ag89
(g93
S'\x16\xd3YLg1\xdd?'
p1894
tp1895
Rp1896
ag89
(g93
S'5&\xd2\x03\x95\xb3\xdb?'
p1897
tp1898
Rp1899
aF0.0
ag89
(g93
S'\xe48\x8e\xe38\x8e\xe0?'
p1900
tp1901
Rp1902
ag89
(g93
S'\xa8ld\xaa\xd7\xd6\xdd?'
p1903
tp1904
Rp1905
ag89
(g93
S'\x00\x00\x00\x00\x00\x00\xdc?'
p1906
tp1907
Rp1908
ag89
(g93
S'\x1c\xc7q\x1c\xc7q\xdc?'
p1909
tp1910
Rp1911
ag89
(g93
S'\x9c\xde\xf4\xa67\xbd\xd9?'
p1912
tp1913
Rp1914
ag89
(g93
S'\xde\xc0\x8a\xb8V3\xe6?'
p1915
tp1916
Rp1917
ag89
(g93
S'\xb0wL\r\xec\x1d\xe3?'
p1918
tp1919
Rp1920
ag89
(g93
S'Lg1\x9d\xc5t\xd6?'
p1921
tp1922
Rp1923
ag89
(g93
S'\xd6a\x94\xa9x\xae\xd9?'
p1924
tp1925
Rp1926
ag89
(g93
S'\x15\xbc\x9c\x82\x97S\xe0?'
p1927
tp1928
Rp1929
ag89
(g93
S'{\t\xed%\xb4\x97\xe0?'
p1930
tp1931
Rp1932
ag89
(g93
S'*;L]n\x7f\xe0?'
p1933
tp1934
Rp1935
ag89
(g93
S'\x82\xa7[\xf3\xc3"\xe5?'
p1936
tp1937
Rp1938
ag89
(g93
S'"\xc5P\x7f9"\xe5?'
p1939
tp1940
Rp1941
ag89
(g93
S'\xa8ld\xaa\xd7\xd6\xdd?'
p1942
tp1943
Rp1944
ag89
(g93
S'\x00\x00\x00\x00\x00\x00\xdc?'
p1945
tp1946
Rp1947
ag89
(g93
S'\x15\xbc\x9c\x82\x97S\xe0?'
p1948
tp1949
Rp1950
ag89
(g93
S'*;L]n\x7f\xe0?'
p1951
tp1952
Rp1953
ag89
(g93
S'\xde\xc0\x8a\xb8V3\xe6?'
p1954
tp1955
Rp1956
ag89
(g93
S'*;L]n\x7f\xe0?'
p1957
tp1958
Rp1959
asS'Player1 Inv. Odds'
p1960
(lp1961
g89
(g93
S'N\xec\xc4N\xec\xc4\xee?'
p1962
tp1963
Rp1964
ag89
(g93
S')i\x16v\x9f\xef\xea?'
p1965
tp1966
Rp1967
ag89
(g93
S'WcY\xa7\xc4\t\xc7?'
p1968
tp1969
Rp1970
ag89
(g93
S'K6\xd9d\x93M\xee?'
p1971
tp1972
Rp1973
ag89
(g93
S'\xa0R\x7fJ\xfd)\xe5?'
p1974
tp1975
Rp1976
ag89
(g93
S'\xc0\x1f\xf0\x07\xfc\x01\xef?'
p1977
tp1978
Rp1979
ag89
(g93
S'\x8e:p,\x95\xc8\xd5?'
p1980
tp1981
Rp1982
ag89
(g93
S'\x9atj\x1e\xe4\xae\xef?'
p1983
tp1984
Rp1985
ag89
(g93
S'ny\x96@\xb7I\xc1?'
p1986
tp1987
Rp1988
ag89
(g93
S'\x9c\xb5Y\x9b\xb5Y\xeb?'
p1989
tp1990
Rp1991
ag89
(g93
S'\x8e\x86\x14\xdc\xfe\x81\xcc?'
p1992
tp1993
Rp1994
ag89
(g93
S'\xe27\xee\x9c\xfc\xa3\xe1?'
p1995
tp1996
Rp1997
ag89
(g93
S'xh=\xf3\x0f\xec\xe8?'
p1998
tp1999
Rp2000
ag89
(g93
S'\xa7\xac)k\xca\x9a\xc2?'
p2001
tp2002
Rp2003
ag89
(g93
S'o0GO3#\xb1?'
p2004
tp2005
Rp2006
ag89
(g93
S'\xaeQW\xb3\x88\x98\xd3?'
p2007
tp2008
Rp2009
ag89
(g93
S'O$\xa5\xe8\xa8\xd5\xd2?'
p2010
tp2011
Rp2012
ag89
(g93
S'\x98Q\x10\xd0\\\xdf\xdf?'
p2013
tp2014
Rp2015
ag89
(g93
S'\xbb\xe8\xa2\x8b.\xba\xe6?'
p2016
tp2017
Rp2018
ag89
(g93
S'^\x8b\xd1d\xde\xb5\xd8?'
p2019
tp2020
Rp2021
ag89
(g93
S'+\xc7\xa8\x93Lv\xd5?'
p2022
tp2023
Rp2024
ag89
(g93
S'Qj\xc3y\xbd\x8f\xe2?'
p2025
tp2026
Rp2027
ag89
(g93
S'x\x03N[\x06\x0f\xd2?'
p2028
tp2029
Rp2030
ag89
(g93
S"\xf2'\x12Ni^\xec?"
p2031
tp2032
Rp2033
ag89
(g93
S'P\xe0O\xb1\xdb\x80\xd0?'
p2034
tp2035
Rp2036
ag89
(g93
S'\x00\x19Iq\n\xc7\xd3?'
p2037
tp2038
Rp2039
ag89
(g93
S'\x12\xdaKh/\xa1\xed?'
p2040
tp2041
Rp2042
ag89
(g93
S'\xf0\xa9\x9aJi\x0c\xd1?'
p2043
tp2044
Rp2045
ag89
(g93
S'\xfc\tg\xfe\x03\xf6\xe8?'
p2046
tp2047
Rp2048
ag89
(g93
S'B\x1a\xa4A\x1a\xa4\xe9?'
p2049
tp2050
Rp2051
ag89
(g93
S'Z\x8dl\xfb\r\xc7\xef?'
p2052
tp2053
Rp2054
ag89
(g93
S',z\xed/gK\xc3?'
p2055
tp2056
Rp2057
ag89
(g93
S'\x8c\xc8Kv\x80\xe1\xec?'
p2058
tp2059
Rp2060
ag89
(g93
S'\x80\xb2+.\xd0\xc3\xd9?'
p2061
tp2062
Rp2063
ag89
(g93
S'\x10\xca\xfd\x16D\xa2\xeb?'
p2064
tp2065
Rp2066
ag89
(g93
S'\x1d\x93\xf5\x1c\x93\xf5\xdc?'
p2067
tp2068
Rp2069
ag89
(g93
S'\x1a\x13\xe9\x81\xca\xd9\xed?'
p2070
tp2071
Rp2072
ag89
(g93
S'\x13\xd5\xa8#\xda\x83\xbb?'
p2073
tp2074
Rp2075
ag89
(g93
S'\x81R\x8f0Gw\xed?'
p2076
tp2077
Rp2078
ag89
(g93
S'\x0c\x17<\x815\xb9\xe9?'
p2079
tp2080
Rp2081
ag89
(g93
S"\xf2'\x12Ni^\xec?"
p2082
tp2083
Rp2084
ag89
(g93
S'i\x85\xcd\x81D+\xcc?'
p2085
tp2086
Rp2087
ag89
(g93
S'\x04\xa5\xd9t\xe3\xdf\xeb?'
p2088
tp2089
Rp2090
ag89
(g93
S'[\x88\xd7\xf9\xcc}\xdb?'
p2091
tp2092
Rp2093
ag89
(g93
S'{Yat\x9c\xdf\xc6?'
p2094
tp2095
Rp2096
ag89
(g93
S'Kh/\xa1\xbd\x84\xe2?'
p2097
tp2098
Rp2099
ag89
(g93
S'eWMT\xd9U\xd3?'
p2100
tp2101
Rp2102
ag89
(g93
S'^\x98V\x1d*\x93\xdd?'
p2103
tp2104
Rp2105
ag89
(g93
S'\x01~\x84\xf9\x8an\xcc?'
p2106
tp2107
Rp2108
ag89
(g93
S'\x04\x9aB\xa0)\x04\xda?'
p2109
tp2110
Rp2111
ag89
(g93
S'\x94\xc0\x94\xc0\x94\xc0\xe4?'
p2112
tp2113
Rp2114
ag89
(g93
S'\x1b/\x13\x86\xfb\xa4\xda?'
p2115
tp2116
Rp2117
ag89
(g93
S'\xd0\x88&\x97v\xab\xe2?'
p2118
tp2119
Rp2120
ag89
(g93
S'\xf7\xd2\x15\x0b\xa0\xa6\xe5?'
p2121
tp2122
Rp2123
ag89
(g93
S'V\x11\xd8r\xd7X\xe3?'
p2124
tp2125
Rp2126
ag89
(g93
S'\xd0\xaf\x03\x90\x89\xcd\xdc?'
p2127
tp2128
Rp2129
ag89
(g93
S'\x1a\x13\xe9\x81\xca\xd9\xcd?'
p2130
tp2131
Rp2132
ag89
(g93
S'g\xa7O\xcdN\x9f\xea?'
p2133
tp2134
Rp2135
ag89
(g93
S'\x83\xa3\xf5\xe4\xde\x96\xdf?'
p2136
tp2137
Rp2138
ag89
(g93
S'\xc9\xec\x87\x91\xcd\x04\xde?'
p2139
tp2140
Rp2141
ag89
(g93
S"g\xe5'\xc4Y\xf9\xe9?"
p2142
tp2143
Rp2144
ag89
(g93
S'\xf5}\x96\x88!\x8f\xe9?'
p2145
tp2146
Rp2147
ag89
(g93
S'\xd4\xbc\x9b"$\xcf\xdf?'
p2148
tp2149
Rp2150
ag89
(g93
S'B1rq\xd8R\xe7?'
p2151
tp2152
Rp2153
ag89
(g93
S'g\xa7O\xcdN\x9f\xea?'
p2154
tp2155
Rp2156
ag89
(g93
S'\xa0GcT!)\xe6?'
p2157
tp2158
Rp2159
ag89
(g93
S'*\x82\x8c\x85\x1a\x83\xd7?'
p2160
tp2161
Rp2162
ag89
(g93
S'\x03n\xe6MB\x95\xd2?'
p2163
tp2164
Rp2165
ag89
(g93
S'\xcd\x11\x1f`A:\xe4?'
p2166
tp2167
Rp2168
ag89
(g93
S'\xa1T\x98x?r\xda?'
p2169
tp2170
Rp2171
ag89
(g93
S'F!\x88\xb88\xa2\xd7?'
p2172
tp2173
Rp2174
ag89
(g93
S'Y\x96eY\x96e\xd9?'
p2175
tp2176
Rp2177
ag89
(g93
S'=\xe9\x12~H\xe3\xe5?'
p2178
tp2179
Rp2180
ag89
(g93
S'D\xa6a\xbbY\x9e\xe4?'
p2181
tp2182
Rp2183
ag89
(g93
S'\x00\x19Iq\n\xc7\xe3?'
p2184
tp2185
Rp2186
ag89
(g93
S'e\xe0\xe9\xd6\xfc\xb0\xd8?'
p2187
tp2188
Rp2189
ag89
(g93
S'\x0e\xe55\x94\xd7P\xda?'
p2190
tp2191
Rp2192
ag89
(g93
S'\xb00\xabQ\xc4\xa1\xd3?'
p2193
tp2194
Rp2195
ag89
(g93
S'\xa5\xab\xdd\x06e\x85\xd8?'
p2196
tp2197
Rp2198
ag89
(g93
S'\xab\xaa\xaa\xaa\xaa\xaa\xea?'
p2199
tp2200
Rp2201
ag89
(g93
S'\x90\x10\x9eo\xe6\x80\xd6?'
p2202
tp2203
Rp2204
ag89
(g93
S'Y\x96eY\x96e\xd9?'
p2205
tp2206
Rp2207
ag89
(g93
S'p\xac\xfe@\x8f\x94\xe0?'
p2208
tp2209
Rp2210
ag89
(g93
S'\xd1\x18L\xd8\x1f\xd9\xe9?'
p2211
tp2212
Rp2213
ag89
(g93
S'\x845K\x8cO\x99\xe6?'
p2214
tp2215
Rp2216
ag89
(g93
S'^,`K\xf6\x82\xcf?'
p2217
tp2218
Rp2219
ag89
(g93
S"'i\x16v\x9f\xef\xca?"
p2220
tp2221
Rp2222
ag89
(g93
S"'<\xd3\xdf\xa0\xdb\xe5?"
p2223
tp2224
Rp2225
ag89
(g93
S'\xd7\xb1h\xd6\xb1h\xd6?'
p2226
tp2227
Rp2228
ag89
(g93
S'\xffn\xc5V#\xbd\xd4?'
p2229
tp2230
Rp2231
ag89
(g93
S"\x82M\xd0\x7f'J\xe7?"
p2232
tp2233
Rp2234
ag89
(g93
S'\\V\x0c\x94\xf0F\xd3?'
p2235
tp2236
Rp2237
ag89
(g93
S'OE\x02\xc9\x8c\xae\xc8?'
p2238
tp2239
Rp2240
ag89
(g93
S'\xb9y\xa2\x8d\xe2\xeb\xc9?'
p2241
tp2242
Rp2243
ag89
(g93
S'B{\t\xed%\xb4\xe7?'
p2244
tp2245
Rp2246
ag89
(g93
S'\x81\xa8td\xcf@\xe4?'
p2247
tp2248
Rp2249
ag89
(g93
S'\xd4\xf5\xe9\xfat}\xea?'
p2250
tp2251
Rp2252
ag89
(g93
S'ExR\x90\xfcy\xe5?'
p2253
tp2254
Rp2255
ag89
(g93
S'\xe0\x0fM\xfc\xf7C\xd3?'
p2256
tp2257
Rp2258
ag89
(g93
S'\xafT\x02^zG\xe8?'
p2259
tp2260
Rp2261
asS'Result'
p2262
(lp2263
S'Win'
p2264
ag2264
aS'Loss'
p2265
ag2264
ag2264
ag2264
ag2265
ag2264
ag2265
ag2265
ag2264
ag2265
ag2264
ag2265
ag2265
ag2264
ag2265
ag2264
ag2264
ag2265
ag2265
ag2264
ag2264
ag2264
ag2264
ag2264
ag2264
ag2265
ag2264
ag2264
ag2264
ag2265
ag2264
ag2265
ag2264
ag2265
ag2265
ag2265
ag2264
ag2264
ag2264
ag2265
ag2265
ag2264
ag2265
ag2265
ag2264
ag2265
ag2265
ag2264
ag2264
ag2265
ag2265
ag2265
ag2265
ag2265
ag2265
ag2264
ag2264
ag2265
ag2264
ag2264
ag2265
ag2264
ag2264
ag2264
ag2265
ag2265
ag2264
ag2265
ag2265
ag2265
ag2265
ag2265
ag2265
ag2265
ag2265
ag2264
ag2264
ag2264
ag2264
ag2265
ag2265
ag2264
ag2264
ag2265
ag2265
ag2264
ag2265
ag2265
ag2264
ag2265
ag2264
ag2265
ag2264
ag2264
ag2264
ag2265
ag2265
ag2265
asS'P1 set wpo 2years'
p2266
(lp2267
g89
(g93
S'+\xa7\x05m\xed\xe2\xe3?'
p2268
tp2269
Rp2270
ag89
(g93
S'\xce\x9f\xe5\xfcY\xce\xdf?'
p2271
tp2272
Rp2273
ag89
(g93
S'Ym\xfd\xed\x81\x8d\xde?'
p2274
tp2275
Rp2276
ag89
(g93
S'\x1d\xaf\x1a\xa0\xc0\x83\xe6?'
p2277
tp2278
Rp2279
ag89
(g93
S'wc\xdf#r\x82\xe0?'
p2280
tp2281
Rp2282
ag89
(g93
S'B\xe0\x99\x1b\xc8*\xe6?'
p2283
tp2284
Rp2285
ag89
(g93
S'\xbb\x12\xb5+Q\xbb\xd2?'
p2286
tp2287
Rp2288
ag89
(g93
S'!z|\x17\x0e\xa2\xe7?'
p2289
tp2290
Rp2291
ag89
(g93
S'\xab\xaa\xaa\xaa\xaa\xaa\xda?'
p2292
tp2293
Rp2294
ag89
(g93
S'\x8c1\xc6\x18c\x8c\xe1?'
p2295
tp2296
Rp2297
ag89
(g93
S'\xd2y\x8b!\x9d\xb7\xd8?'
p2298
tp2299
Rp2300
ag89
(g93
S'\x86{\x15\xcc\x92r\xe0?'
p2301
tp2302
Rp2303
ag89
(g93
S'.yW\xad\xd8\x8e\xe2?'
p2304
tp2305
Rp2306
ag89
(g93
S'\x93\x95\xacd%+\xd9?'
p2307
tp2308
Rp2309
ag89
(g93
S'UUUUUU\xd5?'
p2310
tp2311
Rp2312
ag89
(g93
S'\x00\x00\x00\x00\x00\x00\xdf?'
p2313
tp2314
Rp2315
ag89
(g93
S'\x11\xaf\xf3\x99\xfb\xb6\xe0?'
p2316
tp2317
Rp2318
ag89
(g93
S'v\xd9e\x97]v\xd9?'
p2319
tp2320
Rp2321
ag89
(g93
S':\xe3$\xca*2\xe4?'
p2322
tp2323
Rp2324
ag89
(g93
S'g\xd7\x8b\xac\xad\xe2\xdd?'
p2325
tp2326
Rp2327
ag89
(g93
S'\x92\xde\xa1\x18\xcc\x08\xe2?'
p2328
tp2329
Rp2330
ag89
(g93
S'\x08*g\xb7\xf0\xab\xe1?'
p2331
tp2332
Rp2333
ag89
(g93
S'[=;\x04n,\xe3?'
p2334
tp2335
Rp2336
ag89
(g93
S'\xd6\\\xcd\xd5\\\xcd\xe5?'
p2337
tp2338
Rp2339
ag89
(g93
S'\xce\x9f\xe5\xfcY\xce\xdf?'
p2340
tp2341
Rp2342
ag89
(g93
S'\xf3\xc3"e\xe0\xe9\xd6?'
p2343
tp2344
Rp2345
ag89
(g93
S'\x1d\xaf\x1a\xa0\xc0\x83\xe6?'
p2346
tp2347
Rp2348
ag89
(g93
S'\x82\xa8td\xcf@\xe4?'
p2349
tp2350
Rp2351
ag89
(g93
S'.yW\xad\xd8\x8e\xe2?'
p2352
tp2353
Rp2354
ag89
(g93
S']V\x0c\x94\xf0F\xe3?'
p2355
tp2356
Rp2357
ag89
(g93
S'!z|\x17\x0e\xa2\xe7?'
p2358
tp2359
Rp2360
ag89
(g93
S'\x00\x00\x00\x00\x00\x00\xdf?'
p2361
tp2362
Rp2363
ag89
(g93
S'N6\xd9d\x93M\xe6?'
p2364
tp2365
Rp2366
ag89
(g93
S'\xc9\x10\xac\xa3\xcd\xfb\xd4?'
p2367
tp2368
Rp2369
ag89
(g93
S'\xd6\\\xcd\xd5\\\xcd\xe5?'
p2370
tp2371
Rp2372
ag89
(g93
S'[=;\x04n,\xe3?'
p2373
tp2374
Rp2375
ag89
(g93
S'\x1d\xaf\x1a\xa0\xc0\x83\xe6?'
p2376
tp2377
Rp2378
ag89
(g93
S'\xf3\xc3"e\xe0\xe9\xd6?'
p2379
tp2380
Rp2381
ag89
(g93
S'@\xed\x9d\xd7g\xd0\xe5?'
p2382
tp2383
Rp2384
ag89
(g93
S'N6\xd9d\x93M\xe6?'
p2385
tp2386
Rp2387
ag89
(g93
S'!z|\x17\x0e\xa2\xe7?'
p2388
tp2389
Rp2390
ag89
(g93
S'\xce\x9f\xe5\xfcY\xce\xdf?'
p2391
tp2392
Rp2393
ag89
(g93
S'!z|\x17\x0e\xa2\xe7?'
p2394
tp2395
Rp2396
ag89
(g93
S'\x16_\xf1\x15_\xf1\xe5?'
p2397
tp2398
Rp2399
ag89
(g93
S'\x1b\x13\xe9\x81\xca\xd9\xe5?'
p2400
tp2401
Rp2402
ag89
(g93
S'N6\xd9d\x93M\xe6?'
p2403
tp2404
Rp2405
ag89
(g93
S'\x16_\xf1\x15_\xf1\xe5?'
p2406
tp2407
Rp2408
ag89
(g93
S'\x7f\xa5@\xad_)\xe0?'
p2409
tp2410
Rp2411
ag89
(g93
S'\x9a\x99\x99\x99\x99\x99\xd9?'
p2412
tp2413
Rp2414
ag89
(g93
S'\x18\x86a\x18\x86a\xd8?'
p2415
tp2416
Rp2417
ag89
(g93
S'\x89\x88\x88\x88\x88\x88\xd8?'
p2418
tp2419
Rp2420
ag89
(g93
S'\xc6o\x97z2~\xdb?'
p2421
tp2422
Rp2423
ag89
(g93
S'\xfbt}\xba>]\xdf?'
p2424
tp2425
Rp2426
ag89
(g93
S'd+\x82\x86\x93\xba\xdf?'
p2427
tp2428
Rp2429
ag89
(g93
S'$*\xc86\x04\x14\xdf?'
p2430
tp2431
Rp2432
ag89
(g93
S'\xc2\x14\xf9\xac\x1bL\xe1?'
p2433
tp2434
Rp2435
ag89
(g93
S'z\xd3\x9b\xde\xf4\xa6\xd7?'
p2436
tp2437
Rp2438
ag89
(g93
S'\x1eS\x03{\xc7\xd4\xe0?'
p2439
tp2440
Rp2441
ag89
(g93
S'\xfa\xf9\xf9\xf9\xf9\xf9\xd9?'
p2442
tp2443
Rp2444
ag89
(g93
S'\x8c.\xba\xe8\xa2\x8b\xde?'
p2445
tp2446
Rp2447
ag89
(g93
S'\xc5\x12K,\xb1\xc4\xe2?'
p2448
tp2449
Rp2450
ag89
(g93
S'\xbb\x85_\x8d\x89\xf4\xe0?'
p2451
tp2452
Rp2453
ag89
(g93
S'F\x17]t\xd1E\xd7?'
p2454
tp2455
Rp2456
ag89
(g93
S'5\xc1x+\xfb\x1c\xe2?'
p2457
tp2458
Rp2459
ag89
(g93
S'h\xd3\x806\rh\xe3?'
p2460
tp2461
Rp2462
ag89
(g93
S'\x16\xd0\xb8[\xe7\x15\xe0?'
p2463
tp2464
Rp2465
ag89
(g93
S';\xb1\x13;\xb1\x13\xdb?'
p2466
tp2467
Rp2468
ag89
(g93
S'\xfa\xf9\xf9\xf9\xf9\xf9\xd9?'
p2469
tp2470
Rp2471
ag89
(g93
S'\xc5\x12K,\xb1\xc4\xe2?'
p2472
tp2473
Rp2474
ag89
(g93
S'\x9e\xf1\x8cg<\xe3\xd9?'
p2475
tp2476
Rp2477
ag89
(g93
S'\x1eS\x03{\xc7\xd4\xe0?'
p2478
tp2479
Rp2480
ag89
(g93
S'5\xc1x+\xfb\x1c\xe2?'
p2481
tp2482
Rp2483
ag89
(g93
S'h\xd3\x806\rh\xe3?'
p2484
tp2485
Rp2486
ag89
(g93
S'\xc5\x12K,\xb1\xc4\xe2?'
p2487
tp2488
Rp2489
ag89
(g93
S'`".7y\x0e\xe0?'
p2490
tp2491
Rp2492
ag89
(g93
S'\x0f\xe8\xc6<}\xb4\xda?'
p2493
tp2494
Rp2495
ag89
(g93
S'*\xf2Y7\x98"\xdf?'
p2496
tp2497
Rp2498
ag89
(g93
S'\x00\x00\x00\x00\x00\x00\x00\x00'
p2499
tp2500
Rp2501
ag89
(g93
S'\xd6a\x94\xa9x\xae\xd9?'
p2502
tp2503
Rp2504
ag89
(g93
S'\x9e\xd8\x89\x9d\xd8\x89\xdd?'
p2505
tp2506
Rp2507
ag89
(g93
S'n\xdb\xb6m\xdb\xb6\xdd?'
p2508
tp2509
Rp2510
ag89
(g93
S'L\xae &W\x10\xd3?'
p2511
tp2512
Rp2513
ag89
(g93
S'\xc3\xf5(\\\x8f\xc2\xd5?'
p2514
tp2515
Rp2516
ag89
(g93
S'\x15\xbc\x9c\x82\x97S\xe0?'
p2517
tp2518
Rp2519
ag89
(g93
S'{\t\xed%\xb4\x97\xe0?'
p2520
tp2521
Rp2522
ag89
(g93
S'\xbecj`\xef\x98\xda?'
p2523
tp2524
Rp2525
ag89
(g93
S'\x0f\xe8\xc6<}\xb4\xda?'
p2526
tp2527
Rp2528
ag89
(g93
S'\xa8ld\xaa\xd7\xd6\xdd?'
p2529
tp2530
Rp2531
ag89
(g93
S'\x00\x00\x00\x00\x00\x00\x00\x00'
p2532
tp2533
Rp2534
ag89
(g93
S'n\xdb\xb6m\xdb\xb6\xdd?'
p2535
tp2536
Rp2537
ag89
(g93
S'"\xc5P\x7f9"\xe5?'
p2538
tp2539
Rp2540
ag89
(g93
S'\x9e\xd8\x89\x9d\xd8\x89\xdd?'
p2541
tp2542
Rp2543
ag89
(g93
S'\x00\x00\x00\x00\x00\x00\xdc?'
p2544
tp2545
Rp2546
ag89
(g93
S'\xd6a\x94\xa9x\xae\xd9?'
p2547
tp2548
Rp2549
ag89
(g93
S'\xb0wL\r\xec\x1d\xe3?'
p2550
tp2551
Rp2552
ag89
(g93
S'*;L]n\x7f\xe0?'
p2553
tp2554
Rp2555
ag89
(g93
S'\xde\xc0\x8a\xb8V3\xe6?'
p2556
tp2557
Rp2558
ag89
(g93
S'"\xc5P\x7f9"\xe5?'
p2559
tp2560
Rp2561
ag89
(g93
S'\xb0wL\r\xec\x1d\xe3?'
p2562
tp2563
Rp2564
ag89
(g93
S'\xde\xc0\x8a\xb8V3\xe6?'
p2565
tp2566
Rp2567
asS'Player2 Points'
p2568
(lp2569
F6.447305862541213
aF6.0112671744041615
aF7.620705086838262
aF6.51471269087253
aF6.608000625296087
aF6.428105272684596
aF7.01211529430638
aF6.918695219020472
aF8.07246736935477
aF7.102499355774649
aF7.233455418621439
aF6.208590026096629
aF6.715383386334681
aF7.630461261783627
aF8.513185170018698
aF7.254884810077338
aF6.016157159698354
aF6.579251212010101
aF7.051855622955894
aF7.358830898342354
aF7.963807953231451
aF6.2324480165505225
aF8.164794804244766
aF6.894670039433482
aF7.620705086838262
aF7.405495663199472
aF6.895682697747868
aF8.07246736935477
aF7.102499355774649
aF7.886081401775745
aF7.01211529430638
aF8.513185170018698
aF6.945051063725834
aF7.358830898342354
aF6.922643891475888
aF7.963807953231451
aF7.300472814267799
aF9.605081516721372
aF6.678342114654332
aF7.358830898342354
aF7.349230824613334
aF7.949797216161852
aF8.334471554600944
aF6.016157159698354
aF9.605081516721372
aF8.513185170018698
aF9.605081516721372
aF5.4116460518550396
aF7.069023426578259
aF6.881411303642535
aF5.6240175061873385
aF6.709304340258298
aF6.6240652277998935
aF5.872117789475416
aF6.807934943699926
aF6.47543271670409
aF6.309918278226516
aF5.916202062607435
aF6.464588303689961
aF5.4116460518550396
aF5.564520407322694
aF6.324358962381311
aF6.7226297948554485
aF6.709304340258298
aF6.47543271670409
aF6.309918278226516
aF6.9874902470009905
aF7.258412150595307
aF7.069023426578259
aF7.5126175446745105
aF7.76004068088038
aF8.100161446936607
aF7.5126175446745105
aF7.5126175446745105
aF6.499787040655854
aF6.484635235635252
aF7.261927092702751
aF7.200424892944957
aF6.272877006546167
aF4.997212273764115
aF6.882437470997847
aF7.166265974133638
aF6.740519359606223
aF6.68586094706836
aF6.447305862541213
aF8.741935464094144
aF7.575584651557793
aF5.648974238161206
aF7.081708586105575
aF7.166265974133638
aF6.882437470997847
aF7.261927092702751
aF8.468002947225466
aF8.128585200374497
aF7.166265974133638
aF6.740519359606223
aF7.166265974133638
aF7.261927092702751
aF8.741935464094144
aF7.261927092702751
as.