(lp0
(lp1
F0.1111111111111111
aF0.010869565217391304
aF8.164794804244766
aF6.447305862541213
acnumpy.core.multiarray
scalar
p2
(cnumpy
dtype
p3
(S'f8'
p4
I0
I1
tp5
Rp6
(I3
S'<'
p7
NNNI-1
I-1
I0
tp8
bS'N\xec\xc4N\xec\xc4\xee?'
p9
tp10
Rp11
ag2
(g6
S'1\xcb$f\xb4\xe1\xb6?'
p12
tp13
Rp14
aF0.2482835925458876
aF0.2563953488372093
ag2
(g6
S'\xf2\xad\x9d\x02\x90\x93\xc8?'
p15
tp16
Rp17
ag2
(g6
S'\x80\xbciX\r\xc8\xcb?'
p18
tp19
Rp20
aF0.24014022787028927
ag2
(g6
S'\xdaZ\xb0\xab=\xe3\xc7?'
p21
tp22
Rp23
aa(lp24
F0.04
aF0.006944444444444444
aF7.300472814267799
aF6.0112671744041615
ag2
(g6
S')i\x16v\x9f\xef\xea?'
p25
tp26
Rp27
ag2
(g6
S'g\xac\xc9a\xb6\xb7\xcb?'
p28
tp29
Rp30
aF0.2428977272727273
aF0.4375
ag2
(g6
S'R\xad\xa6\xb0!x\xc6?'
p31
tp32
Rp33
ag2
(g6
S'\xb8|\xcb\xb7|\xcb\xc7?'
p34
tp35
Rp36
aF0.2198100407055631
ag2
(g6
S'&\xab\xe5\x8d\x11L\xc4?'
p37
tp38
Rp39
aa(lp40
F0.023255813953488372
aF0.058823529411764705
aF6.922643891475888
aF7.620705086838262
ag2
(g6
S'WcY\xa7\xc4\t\xc7?'
p41
tp42
Rp43
ag2
(g6
S'\xa6\x19\xff\x11\x98\x1e\xec?'
p44
tp45
Rp46
aF-0.17045454545454547
aF-0.34313725490196073
ag2
(g6
S'\x9cJ\nH\xf8\xc9\xbd\xbf'
p47
tp48
Rp49
ag2
(g6
S'T\x90s\x8d\\\xd5\xcb\xbf'
p50
tp51
Rp52
aF-0.1600877192982456
ag2
(g6
S'd\xb8W\xc1,)\xbf\xbf'
p53
tp54
Rp55
aa(lp56
F0.2
aF0.011494252873563218
aF8.48673398393153
aF6.51471269087253
ag2
(g6
S'K6\xd9d\x93M\xee?'
p57
tp58
Rp59
ag2
(g6
S'#\x9dM\x9d@O\xbb?'
p60
tp61
Rp62
aF0.2624166666666667
aF0.19646109810044238
ag2
(g6
S'\x8e\x9b\x8a\xa9\x9a\xdb\xcb?'
p63
tp64
Rp65
ag2
(g6
S'\xf4-\xdf\xf2-\xdf\xc2?'
p66
tp67
Rp68
aF0.3034211240836275
ag2
(g6
S'"_\xc3|\x96[\xcf?'
p69
tp70
Rp71
aa(lp72
F0.023809523809523808
aF0.014285714285714285
aF6.945051063725834
aF6.608000625296087
ag2
(g6
S'\xa0R\x7fJ\xfd)\xe5?'
p73
tp74
Rp75
ag2
(g6
S'Y\x96eY\x96e\xd9?'
p76
tp77
Rp78
aF0.02543859649122815
aF-0.045238095238095244
ag2
(g6
S'0B\x1e\x13M\x9d\x9a?'
p79
tp80
Rp81
ag2
(g6
S'\xe0+\x8c\x04\x1b7\x9a\xbf'
p82
tp83
Rp84
aF0.023939393939393983
ag2
(g6
S'`\xc5\x08\x01\xe5\x83\x9c?'
p85
tp86
Rp87
aa(lp88
F0.14285714285714285
aF0.010526315789473684
aF8.334471554600944
aF6.428105272684596
ag2
(g6
S'\xc0\x1f\xf0\x07\xfc\x01\xef?'
p89
tp90
Rp91
ag2
(g6
S']0\x96f\x8f6\xb5?'
p92
tp93
Rp94
aF0.32714468629961585
aF0.7623762376237624
ag2
(g6
S'z\xd0\x8a\x9a\x17\xe0\xca?'
p95
tp96
Rp97
ag2
(g6
S'\xf5W\x7f\xf5W\x7f\xd5?'
p98
tp99
Rp100
aF0.3754681647940075
ag2
(g6
S'\xc0)\xca\x088E\xcd?'
p101
tp102
Rp103
aa(lp104
F0.004
aF0.02564102564102564
aF5.337538079701318
aF7.01211529430638
ag2
(g6
S'\x8e:p,\x95\xc8\xd5?'
p105
tp106
Rp107
ag2
(g6
S'3\xf4/m\x04\x0e\xe7?'
p108
tp109
Rp110
aF-0.38039215686274513
aF-0.8
ag2
(g6
S'I>4\x9dM\xc6\xd5\xbf'
p111
tp112
Rp113
ag2
(g6
S'b\x82\xee*\xc5\x04\xdd\xbf'
p114
tp115
Rp116
aF-0.38039215686274513
ag2
(g6
S'I>4\x9dM\xc6\xd5\xbf'
p117
tp118
Rp119
aa(lp120
F0.5
aF0.022222222222222223
aF9.13830716907635
aF6.918695219020472
ag2
(g6
S'\x9atj\x1e\xe4\xae\xef?'
p121
tp122
Rp123
ag2
(g6
S'\xdf\xb1\xac\x9b\xb0\xcd\xaa?'
p124
tp125
Rp126
aF0.4107312440645774
aF0.35007173601147773
ag2
(g6
S'=\xc5QN6/\xd3?'
p127
tp128
Rp129
ag2
(g6
S'\xe6\xfe\x80w\x91\xe8\xd0?'
p130
tp131
Rp132
aF0.4
ag2
(g6
S'f%\xdd\xc4hV\xd2?'
p133
tp134
Rp135
aa(lp136
F0.011235955056179775
aF0.1
aF6.499787040655854
aF8.07246736935477
ag2
(g6
S'ny\x96@\xb7I\xc1?'
p137
tp138
Rp139
ag2
(g6
S'\xb9\xd5\x19\xa9\x98[\xed?'
p140
tp141
Rp142
aF-0.24657325616813897
aF0.0031876138433515333
ag2
(g6
S'J\xd0\xa1\x8e\xfc-\xc5\xbf'
p143
tp144
Rp145
ag2
(g6
S'`\xab*\xeeDp\x91\xbf'
p146
tp147
Rp148
aF-0.2413522012578616
ag2
(g6
S'@\xb5\xaa\xaf\x07\xa2\xc5\xbf'
p149
tp150
Rp151
aa(lp152
F0.05555555555555555
aF0.027777777777777776
aF7.517520850603031
aF7.102499355774649
ag2
(g6
S'\x9c\xb5Y\x9b\xb5Y\xeb?'
p153
tp154
Rp155
ag2
(g6
S'/\x06\xef%\x822\xca?'
p156
tp157
Rp158
aF0.09753491023083494
aF0.16233766233766228
ag2
(g6
S'\xf0\x97,\x7f\xc9\xf2\xb7?'
p159
tp160
Rp161
ag2
(g6
S'\x94\xb1\x04\x08\x83J\xbf?'
p162
tp163
Rp164
aF0.1265822784810126
ag2
(g6
S'p\xdc\xe7\x01/2\xbb?'
p165
tp166
Rp167
aa(lp168
F0.025
aF0.03225806451612903
aF7.01211529430638
aF7.233455418621439
ag2
(g6
S'\x8e\x86\x14\xdc\xfe\x81\xcc?'
p169
tp170
Rp171
ag2
(g6
S'pth\x92\x7f\xc1\xea?'
p172
tp173
Rp174
aF-0.21232568600989654
aF-0.34365325077399383
ag2
(g6
S'\\\x0c\xe9\xbc\xc5\x90\xc6\xbf'
p175
tp176
Rp177
ag2
(g6
S'^.\xde\xacS\xe3\xd0\xbf'
p178
tp179
Rp180
aF-0.16849315068493154
ag2
(g6
S'\x8cv$\x03\xee\x9b\xc2\xbf'
p181
tp182
Rp183
aa(lp184
F0.03125
aF0.00819672131147541
aF7.200424892944957
aF6.208590026096629
ag2
(g6
S'\xe27\xee\x9c\xfc\xa3\xe1?'
p185
tp186
Rp187
ag2
(g6
S'\x91\x06i\x90\x06i\xe0?'
p188
tp189
Rp190
aF0.22629629629629627
aF0.23004694835680756
ag2
(g6
S'\x86\xcc\xfd\xe8\xaf\xd2\xc7?'
p191
tp192
Rp193
ag2
(g6
S'\xf8s?\xf7s?\xc7?'
p194
tp195
Rp196
aF0.2418572418572419
ag2
(g6
S'(\x90\x7fV\x19g\xc8?'
p197
tp198
Rp199
aa(lp200
F0.041666666666666664
aF0.01818181818181818
aF7.349230824613334
aF6.715383386334681
ag2
(g6
S'xh=\xf3\x0f\xec\xe8?'
p201
tp202
Rp203
ag2
(g6
S'\x94\x83\xccK\x89\xe0\xd1?'
p204
tp205
Rp206
aF0.12217370965226881
aF0.1292134831460674
ag2
(g6
S'h+zU@\xc6\xb6?'
p207
tp208
Rp209
ag2
(g6
S'\xa8\xa4Qm\xb9J\xba?'
p210
tp211
Rp212
aF0.14197530864197527
ag2
(g6
S'\x80d6\xe4\xde\xb7\xb9?'
p213
tp214
Rp215
aa(lp216
F0.014084507042253521
aF0.0625
aF6.601230118728877
aF7.630461261783627
ag2
(g6
S'\xa7\xac)k\xca\x9a\xc2?'
p217
tp218
Rp219
ag2
(g6
S'\xd1(\xf13J\xfc\xec?'
p220
tp221
Rp222
aF-0.24894131881427706
aF-0.11372549019607847
ag2
(g6
S'\x16\xf0\x9b\xd4B\xa4\xcc\xbf'
p223
tp224
Rp225
ag2
(g6
S'\xa0\xf4I\x9f\xf4I\xbf\xbf'
p226
tp227
Rp228
aF-0.24067982456140347
ag2
(g6
S'\xa2\xd8\xea\xfe\xc9\x1f\xcb\xbf'
p229
tp230
Rp231
aa(lp232
F0.00411522633744856
aF0.3333333333333333
aF5.37989735354046
aF8.513185170018698
ag2
(g6
S'o0GO3#\xb1?'
p233
tp234
Rp235
ag2
(g6
S'p~\xa6f\xbcK\xef?'
p236
tp237
Rp238
aF-0.7099236641221374
aF-0.7045454545454546
ag2
(g6
S'+\x85\xe6YzK\xd6\xbf'
p239
tp240
Rp241
ag2
(g6
S'\nqV~B\x9c\xe5\xbf'
p242
tp243
Rp244
aF-0.71875
ag2
(g6
S'aj\x7f\xa9\xfd\xa5\xd6\xbf'
p245
tp246
Rp247
aa(lp248
F0.015625
aF0.03571428571428571
aF6.652863029353347
aF7.254884810077338
ag2
(g6
S'\xaeQW\xb3\x88\x98\xd3?'
p249
tp250
Rp251
ag2
(g6
S'=\xad`\xa9O+\xe8?'
p252
tp253
Rp254
aF-0.07173913043478264
aF0.026315789473684237
ag2
(g6
S'@\x08!\x84\x10B\xa0\xbf'
p255
tp256
Rp257
ag2
(g6
S'P\xa1\xa7qw\xbb\xaa?'
p258
tp259
Rp260
aF-0.06106497313141179
ag2
(g6
S'\x80\x93\xba/\x8f\xad\x98\xbf'
p261
tp262
Rp263
aa(lp264
F0.045454545454545456
aF0.007042253521126761
aF7.399398083331354
aF6.016157159698354
ag2
(g6
S'O$\xa5\xe8\xa8\xd5\xd2?'
p265
tp266
Rp267
ag2
(g6
S'\xe8\x03\xaacom\xe8?'
p268
tp269
Rp270
aF-0.1039553752535497
aF-0.10822510822510822
ag2
(g6
S'`:\xc5\xd0\xa7\x7f\xb4\xbf'
p271
tp272
Rp273
ag2
(g6
S'0|\\a\xaf\x8f\xb4\xbf'
p274
tp275
Rp276
aF-0.11559029206088034
ag2
(g6
S'8\xc3\xe3Z\x96\x06\xb7\xbf'
p277
tp278
Rp279
aa(lp280
F0.015873015873015872
aF0.013888888888888888
aF6.678342114654332
aF6.579251212010101
ag2
(g6
S'\x98Q\x10\xd0\\\xdf\xdf?'
p281
tp282
Rp283
ag2
(g6
S'\xf2{\x19\xf2{\x19\xe2?'
p284
tp285
Rp286
aF-0.057142857142857106
aF0.0649350649350649
ag2
(g6
S'p\x076s\xd2\x1e\x9a\xbf'
p287
tp288
Rp289
ag2
(g6
S'\xc8\x11\xb5\xe1v^\xae?'
p290
tp291
Rp292
aF-0.0641025641025641
ag2
(g6
S'\xd0+\xe9cYD\x9a\xbf'
p293
tp294
Rp295
aa(lp296
F0.07692307692307693
aF0.02631578947368421
aF7.886081401775745
aF7.051855622955894
ag2
(g6
S'\xbb\xe8\xa2\x8b.\xba\xe6?'
p297
tp298
Rp299
ag2
(g6
S'].\xddb\x14\x8d\xd6?'
p300
tp301
Rp302
aF0.16079396830281578
aF0.26554621848739496
ag2
(g6
S'dL@ wC\xc0?'
p303
tp304
Rp305
ag2
(g6
S'\xb4I\xd4\xcf\x9b\xe7\xcb?'
p306
tp307
Rp308
aF0.1280249804839969
ag2
(g6
S'\xa8te\x02\xa2y\xbc?'
p309
tp310
Rp311
aa(lp312
F0.017857142857142856
aF0.043478260869565216
aF6.705639094860003
aF7.358830898342354
ag2
(g6
S'^\x8b\xd1d\xde\xb5\xd8?'
p313
tp314
Rp315
ag2
(g6
S'\xce\xefx7\xc9\x88\xe5?'
p316
tp317
Rp318
aF-0.10815828041035663
aF-0.06904761904761914
ag2
(g6
S'|\xf30 \xf3\xee\xb8\xbf'
p319
tp320
Rp321
ag2
(g6
S'\xf8\xd3U\x0f\x86\xe6\xb4\xbf'
p322
tp323
Rp324
aF-0.11588032220943617
ag2
(g6
S'd\xd7q\xdc\xcd\x93\xb8\xbf'
p325
tp326
Rp327
aa(lp328
F0.02857142857142857
aF0.09090909090909091
aF7.150701457592526
aF7.963807953231451
ag2
(g6
S'+\xc7\xa8\x93Lv\xd5?'
p329
tp330
Rp331
ag2
(g6
S'9 2\xdc\xab`\xe6?'
p332
tp333
Rp334
aF-0.09560117302052784
aF-0.08333333333333337
ag2
(g6
S'\x10h\x94\x97B\x16\xb3\xbf'
p335
tp336
Rp337
ag2
(g6
S'p63\xe2\xf8/\xb1\xbf'
p338
tp339
Rp340
aF-0.07868731173703958
ag2
(g6
S'\xc8\xdc\xec\x1a\xc5\x01\xb0\xbf'
p341
tp342
Rp343
aa(lp344
F0.022727272727272728
aF0.008333333333333333
aF6.922643891475888
aF6.2324480165505225
ag2
(g6
S'Qj\xc3y\xbd\x8f\xe2?'
p345
tp346
Rp347
ag2
(g6
S'N\xec\xc4N\xec\xc4\xde?'
p348
tp349
Rp350
aF0.13553113553113555
aF0.1384615384615384
ag2
(g6
S'l\xe5\xb5\x9c \x9a\xc0?'
p351
tp352
Rp353
ag2
(g6
S'4\xec\x11\x01\xac\xc1\xbc?'
p354
tp355
Rp356
aF0.18253343823760815
ag2
(g6
S'R\x84\xdf\xb5(A\xc3?'
p357
tp358
Rp359
aa(lp360
F0.037037037037037035
aF0.1111111111111111
aF7.27931883541462
aF8.164794804244766
ag2
(g6
S'x\x03N[\x06\x0f\xd2?'
p361
tp362
Rp363
ag2
(g6
S'f\xe0\xe9\xd6\xfc\xb0\xe8?'
p364
tp365
Rp366
aF-0.019821785779232548
aF-0.035655737704918034
ag2
(g6
S'\x00:M\x19\xed\xcf\x96\xbf'
p367
tp368
Rp369
ag2
(g6
S'\xb0\x9b\xf9\x84V\xbb\xa9\xbf'
p370
tp371
Rp372
aF-0.04471165644171782
ag2
(g6
S'\xe0D\x01zkN\xa4\xbf'
p373
tp374
Rp375
aa(lp376
F0.08333333333333333
aF0.020833333333333332
aF7.949797216161852
aF6.894670039433482
ag2
(g6
S"\xf2'\x12Ni^\xec?"
p377
tp378
Rp379
ag2
(g6
S'_\xfb\xb6\xab\xe6\xd5\xc5?'
p380
tp381
Rp382
aF0.1874039938556068
aF0.3952380952380952
ag2
(g6
S'x\xceF\x8b\x0f\n\xc5?'
p383
tp384
Rp385
ag2
(g6
S'\xb5\xf2O&]S\xd5?'
p386
tp387
Rp388
aF0.18207350345048956
ag2
(g6
S'`\x1e[\x114\x9c\xc4?'
p389
tp390
Rp391
aa(lp392
F0.04
aF0.058823529411764705
aF7.300472814267799
aF7.620705086838262
ag2
(g6
S'P\xe0O\xb1\xdb\x80\xd0?'
p393
tp394
Rp395
ag2
(g6
S'\x9a\x99\x99\x99\x99\x99\xe9?'
p396
tp397
Rp398
aF-0.109375
aF-0.22916666666666663
ag2
(g6
S'\xc8\x80i\x0c\x98\xc6\xb8\xbf'
p399
tp400
Rp401
ag2
(g6
S'\x94\xce\x7f\x93\xce\x7f\xc3\xbf'
p402
tp403
Rp404
aF-0.1324626865671642
ag2
(g6
S' \x85\xebQ\xb8\x1e\xbd\xbf'
p405
tp406
Rp407
aa(lp408
F0.011904761904761904
aF0.047619047619047616
aF6.520621127558696
aF7.405495663199472
ag2
(g6
S'\x00\x19Iq\n\xc7\xd3?'
p409
tp410
Rp411
ag2
(g6
S')\xaa\x07\x8d\xbc\xf3\xe7?'
p412
tp413
Rp414
aF-0.2916666666666667
aF-0.36062717770034847
ag2
(g6
S'g:\xeb\xa3Rd\xd0\xbf'
p415
tp416
Rp417
ag2
(g6
S'\x0fp\xfavM[\xd1\xbf'
p418
tp419
Rp420
aF-0.3081761006289308
ag2
(g6
S"\xad\xd2\x0e\x0b'\x9a\xd0\xbf"
p421
tp422
Rp423
aa(lp424
F0.2
aF0.02127659574468085
aF8.48673398393153
aF6.895682697747868
ag2
(g6
S'\x12\xdaKh/\xa1\xed?'
p425
tp426
Rp427
ag2
(g6
S'\x0eq\x95)`>\xc0?'
p428
tp429
Rp430
aF0.24352542372881358
aF0.143070044709389
ag2
(g6
S'\x80\xa1\xa0\x14\xda_\xc8?'
p431
tp432
Rp433
ag2
(g6
S'\xd0\x93\x19m\xdaq\xbb?'
p434
tp435
Rp436
aF0.27586206896551724
ag2
(g6
S'\x1c6\xcb\x1c6\xcb\xcc?'
p437
tp438
Rp439
aa(lp440
F0.02564102564102564
aF0.1
aF7.01211529430638
aF8.07246736935477
ag2
(g6
S'\xf0\xa9\x9aJi\x0c\xd1?'
p441
tp442
Rp443
ag2
(g6
S'\xbcHg+$\x1e\xe9?'
p444
tp445
Rp446
aF0.019151846785225746
aF0.2754098360655738
ag2
(g6
S'P\x9ew\xf2\xd6\x13\xad?'
p447
tp448
Rp449
ag2
(g6
S'\xb4\xed%KT\xc1\xcb?'
p450
tp451
Rp452
aF0.030706622271550188
ag2
(g6
S'(s\xe9]\x05\\\xb0?'
p453
tp454
Rp455
aa(lp456
F0.041666666666666664
aF0.027777777777777776
aF7.349230824613334
aF7.102499355774649
ag2
(g6
S'\xfc\tg\xfe\x03\xf6\xe8?'
p457
tp458
Rp459
ag2
(g6
S'D\x1a5\xde\x89\xbf\xd1?'
p460
tp461
Rp462
aF0.14049586776859502
aF0.22012257405515828
ag2
(g6
S'\x80j\xdb\x11;\x03\xc0?'
p463
tp464
Rp465
ag2
(g6
S'\x16_\xf1\x15_\xf1\xc5?'
p466
tp467
Rp468
aF0.19260822003438033
ag2
(g6
S'(4J\xa4\x1a\xb0\xc3?'
p469
tp470
Rp471
aa(lp472
F0.007042253521126761
aF0.07692307692307693
aF6.016157159698354
aF7.886081401775745
ag2
(g6
S'B\x1a\xa4A\x1a\xa4\xe9?'
p473
tp474
Rp475
ag2
(g6
S'\xef\xea\x9b\xe4\xfdu\xd0?'
p476
tp477
Rp478
aF-0.039508340649692664
aF-0.027450980392156876
ag2
(g6
S'\xa0\x9b\x11\xc3Fg\x9d\xbf'
p479
tp480
Rp481
ag2
(g6
S'\xc0\xef\xdf\xe3"\x13\x97\xbf'
p482
tp483
Rp484
aF-0.05239472838315651
ag2
(g6
S'\xa0\xf3h\xdd\xce\x8e\xa7\xbf'
p485
tp486
Rp487
aa(lp488
F0.5
aF0.025
aF9.13830716907635
aF7.01211529430638
ag2
(g6
S'Z\x8dl\xfb\r\xc7\xef?'
p489
tp490
Rp491
ag2
(g6
S'\x11\xf1\xab\xe0\x87\xc4\xa6?'
p492
tp493
Rp494
aF0.4350227420402859
aF0.5294117647058822
ag2
(g6
S'pzm\r\x7f\x8c\xd6?'
p495
tp496
Rp497
ag2
(g6
S'\xb0\x97\rA*u\xda?'
p498
tp499
Rp500
aF0.4
ag2
(g6
S'*G\x1d\x7f\x9cr\xd4?'
p501
tp502
Rp503
aa(lp504
F0.015625
aF0.3333333333333333
aF6.652863029353347
aF8.513185170018698
ag2
(g6
S',z\xed/gK\xc3?'
p505
tp506
Rp507
ag2
(g6
S'\x8c\xc8Kv\x80\xe1\xec?'
p508
tp509
Rp510
aF-0.23166279455691996
aF-0.20454545454545459
ag2
(g6
S'\x00\xb5w^\x9fA\xc9\xbf'
p511
tp512
Rp513
ag2
(g6
S'\x18\x82Q\xd8\x85`\xc4\xbf'
p514
tp515
Rp516
aF-0.2404891304347826
ag2
(g6
S'l\x7f\xa9\xfd\xa5\xf6\xc9\xbf'
p517
tp518
Rp519
aa(lp520
F0.14285714285714285
aF0.023809523809523808
aF8.334471554600944
aF6.945051063725834
ag2
(g6
S'\x8c\xc8Kv\x80\xe1\xec?'
p521
tp522
Rp523
ag2
(g6
S'"\xa3\xeb7mH\xc3?'
p524
tp525
Rp526
aF0.2675059952038369
aF0.3938775510204081
ag2
(g6
S'\\K\xe7\x03\x85,\xc7?'
p527
tp528
Rp529
ag2
(g6
S'k\xf9\x84\xb9\x1c\xb1\xd0?'
p530
tp531
Rp532
aF0.3148621041879469
ag2
(g6
S'\xd0D\xc2\x95\x19\xae\xca?'
p533
tp534
Rp535
aa(lp536
F0.00819672131147541
aF0.043478260869565216
aF6.208590026096629
aF7.358830898342354
ag2
(g6
S'\x80\xb2+.\xd0\xc3\xd9?'
p537
tp538
Rp539
ag2
(g6
S'\x95?\xea\x94?\xea\xe4?'
p540
tp541
Rp542
aF-0.271304347826087
aF-0.25000000000000006
ag2
(g6
S'\xfa\x06\xd8\xa19E\xce\xbf'
p543
tp544
Rp545
ag2
(g6
S'\xb0\x19\xa6\xbarn\xcd\xbf'
p546
tp547
Rp548
aF-0.2809152872444012
ag2
(g6
S'x[\xd0h\x19\xc8\xcd\xbf'
p549
tp550
Rp551
aa(lp552
F0.08333333333333333
aF0.022727272727272728
aF7.949797216161852
aF6.922643891475888
ag2
(g6
S'\x10\xca\xfd\x16D\xa2\xeb?'
p553
tp554
Rp555
ag2
(g6
S'/\xcbC\xb8c\xa2\xc8?'
p556
tp557
Rp558
aF0.1501831501831502
aF0.12857142857142856
ag2
(g6
S'8\xcb\x98y\xb0\x85\xc0?'
p559
tp560
Rp561
ag2
(g6
S'\xccy\xce$\x16T\xc2?'
p562
tp563
Rp564
aF0.16056812710640356
ag2
(g6
S'h\x98.O\xff\xd0\xc1?'
p565
tp566
Rp567
aa(lp568
F0.037037037037037035
aF0.09090909090909091
aF7.27931883541462
aF7.963807953231451
ag2
(g6
S'\x1d\x93\xf5\x1c\x93\xf5\xdc?'
p569
tp570
Rp571
ag2
(g6
S'\x83\xf318\x1f\x83\xe3?'
p572
tp573
Rp574
aF-0.039121482498284066
aF-0.04398907103825134
ag2
(g6
S'\x90\xe3\x92uf\xf2\xa3\xbf'
p575
tp576
Rp577
ag2
(g6
S'\x80\xc5\xd3*\x05\x8f\xad\xbf'
p578
tp579
Rp580
aF-0.0452913385826772
ag2
(g6
S'\xf0\xdf\xb85mi\xa2\xbf'
p581
tp582
Rp583
aa(lp584
F0.2
aF0.04
aF8.48673398393153
aF7.300472814267799
ag2
(g6
S'\x1a\x13\xe9\x81\xca\xd9\xed?'
p585
tp586
Rp587
ag2
(g6
S'\xaa\xa9\x84\xbd\x0e\x15\xbe?'
p588
tp589
Rp590
aF0.236375
aF0.2510245901639344
ag2
(g6
S'\xd8|\x9f\x86Nr\xca?'
p591
tp592
Rp593
ag2
(g6
S'<\xb1\x13;\xb1\x13\xcb?'
p594
tp595
Rp596
aF0.28332475553268144
ag2
(g6
S'l\xed\x0c\x05\x87\xa6\xce?'
p597
tp598
Rp599
aa(lp600
F0.011904761904761904
aF1.0
aF6.520621127558696
aF9.605081516721372
ag2
(g6
S'\x13\xd5\xa8#\xda\x83\xbb?'
p601
tp602
Rp603
ag2
(g6
S'\xaf\x9c\xb9e\xbf!\xee?'
p604
tp605
Rp606
aF-0.5883534136546185
aF-0.6405152224824356
ag2
(g6
S']\xb0\x97\xf6T\x0b\xdf\xbf'
p607
tp608
Rp609
ag2
(g6
S't\xa5-\xa1\xa9#\xe0\xbf'
p610
tp611
Rp612
aF-0.5845410628019323
ag2
(g6
S'C\xd8z1\xd9 \xde\xbf'
p613
tp614
Rp615
aa(lp616
F0.3333333333333333
aF0.015873015873015872
aF8.513185170018698
aF6.678342114654332
ag2
(g6
S'\x81R\x8f0Gw\xed?'
p617
tp618
Rp619
ag2
(g6
S'}/\x85\xdc\xbc\x0e\xc1?'
p620
tp621
Rp622
aF0.3384950926935659
aF0.27597402597402604
ag2
(g6
S'\n\x01\xd6\x17r*\xd2?'
p623
tp624
Rp625
ag2
(g6
S'N\x8c\xad{F\x96\xce?'
p626
tp627
Rp628
aF0.359775641025641
ag2
(g6
S'\x9d\xa6\xbb\xe59\xe2\xd2?'
p629
tp630
Rp631
aa(lp632
F0.14285714285714285
aF0.043478260869565216
aF8.334471554600944
aF7.358830898342354
ag2
(g6
S'\x0c\x17<\x815\xb9\xe9?'
p633
tp634
Rp635
ag2
(g6
S'\xee\x81\x8e1S\x0c\xd0?'
p636
tp637
Rp638
aF0.19286831404441662
aF0.18197278911564618
ag2
(g6
S'\xac\xb04\xaax\xf9\xc0?'
p639
tp640
Rp641
ag2
(g6
S'\xf8\r\xc9\xde[8\xb9?'
p642
tp643
Rp644
aF0.20352723652396532
ag2
(g6
S'H\xce\xf9\x9f\x1e}\xc1?'
p645
tp646
Rp647
aa(lp648
F0.5
aF0.041666666666666664
aF9.13830716907635
aF7.349230824613334
ag2
(g6
S"\xf2'\x12Ni^\xec?"
p649
tp650
Rp651
ag2
(g6
S't\xb9\xde\x8a\x07/\xc6?'
p652
tp653
Rp654
aF0.2176818691970207
aF0.13549239920687373
ag2
(g6
S'\xcc\x03\x94\xa8\xd5L\xc4?'
p655
tp656
Rp657
ag2
(g6
S'pd\x91\xb4\xae/\xba?'
p658
tp659
Rp660
aF0.15802469135802477
ag2
(g6
S"8'\x85\xd4\xac\x03\xbf?"
p661
tp662
Rp663
aa(lp664
F0.04
aF0.08333333333333333
aF7.300472814267799
aF7.949797216161852
ag2
(g6
S'i\x85\xcd\x81D+\xcc?'
p665
tp666
Rp667
ag2
(g6
S'\xb1\xd4\xd0\xb5\xf8\xcc\xea?'
p668
tp669
Rp670
aF-0.1986607142857143
aF-0.29107142857142854
ag2
(g6
S'\xbc3j]\xbf\x98\xc7\xbf'
p671
tp672
Rp673
ag2
(g6
S'\xb6u\xb6x\xbf\x93\xd0\xbf'
p674
tp675
Rp676
aF-0.21641791044776126
ag2
(g6
S'\xd0\x85?\x06\xf4V\xc9\xbf'
p677
tp678
Rp679
aa(lp680
F0.5
aF0.14285714285714285
aF9.13830716907635
aF8.334471554600944
ag2
(g6
S'\x04\xa5\xd9t\xe3\xdf\xeb?'
p681
tp682
Rp683
ag2
(g6
S'\xde\xf5d\xcai\xad\xc7?'
p684
tp685
Rp686
aF0.03681499245048403
aF-0.0006002400960384291
ag2
(g6
S'0=4*\xabG\xa5?'
p687
tp688
Rp689
ag2
(g6
S'`\xcb\xe0\x85\xf4Y\x9c?'
p690
tp691
Rp692
aF0.00786516853932584
ag2
(g6
S'\xe0\xe0\x9c\x9cn\xc4\x98?'
p693
tp694
Rp695
aa(lp696
F0.3333333333333333
aF0.007042253521126761
aF8.513185170018698
aF6.016157159698354
ag2
(g6
S'[\x88\xd7\xf9\xcc}\xdb?'
p697
tp698
Rp699
ag2
(g6
S'8K\xaf\t2-\xe4?'
p700
tp701
Rp702
aF0.06611947104423166
aF0.04263565891472876
ag2
(g6
S'\xc8E(\x0ftS\xb5?'
p703
tp704
Rp705
ag2
(g6
S'P\xeb\xc3\x9e\xe8q\xaf?'
p706
tp707
Rp708
aF0.0716911764705882
ag2
(g6
S'\xf0K\xf0Z\xc7\xb5\xb5?'
p709
tp710
Rp711
aa(lp712
F0.08333333333333333
aF1.0
aF7.949797216161852
aF9.605081516721372
ag2
(g6
S'{Yat\x9c\xdf\xc6?'
p713
tp714
Rp715
ag2
(g6
S' \xc1}\x04\xf7\x11\xec?'
p716
tp717
Rp718
aF-0.20838266635093539
aF-0.19803921568627447
ag2
(g6
S'L\xac}\x04H/\xc5\xbf'
p719
tp720
Rp721
ag2
(g6
S'4\x11WU(9\xc5\xbf'
p722
tp723
Rp724
aF-0.2089191722546686
ag2
(g6
S',u\xf1O\xdbM\xc3\xbf'
p725
tp726
Rp727
aa(lp728
F0.14285714285714285
aF0.3333333333333333
aF8.334471554600944
aF8.513185170018698
ag2
(g6
S'Kh/\xa1\xbd\x84\xe2?'
p729
tp730
Rp731
ag2
(g6
S'\x8cC"n\xbd\x97\xde?'
p732
tp733
Rp734
aF0.07099436729686015
aF0.056003796867584166
ag2
(g6
S'\x00\xce\xf5\xb9\x13\r\x87?'
p735
tp736
Rp737
ag2
(g6
S'\x00\x93D\xe3\xb0\xe7{\xbf'
p738
tp739
Rp740
aF0.0733848314606742
ag2
(g6
S'@\xa5\n\xb2 \xe9\x84?'
p741
tp742
Rp743
aa(lp744
F0.3333333333333333
aF1.0
aF8.513185170018698
aF9.605081516721372
ag2
(g6
S'eWMT\xd9U\xd3?'
p745
tp746
Rp747
ag2
(g6
S'\xf3<\xcf\xf3<\xcf\xe7?'
p748
tp749
Rp750
aF-0.21365097371903952
aF-0.22403100775193796
ag2
(g6
S'`|\\\xb4\xf5\xd0\xc4\xbf'
p751
tp752
Rp753
ag2
(g6
S'X]xm\xeaM\xc7\xbf'
p754
tp755
Rp756
aF-0.19912439613526567
ag2
(g6
S'\x00\xb9\x91/\xcd\x1e\xc2\xbf'
p757
tp758
Rp759
aa(lp760
F0.03225806451612903
aF0.004201680672268907
aF7.2115567333138015
aF5.4116460518550396
ag2
(g6
S'^\x98V\x1d*\x93\xdd?'
p761
tp762
Rp763
ag2
(g6
S'_0\xddN\x00A\xe3?'
p764
tp765
Rp766
aF0.15712074303405577
aF0.10893416927899685
ag2
(g6
S'\x80e\xd1\xcb\x0b\xbe\xb9?'
p767
tp768
Rp769
ag2
(g6
S'\xa8\xfcm\xa3\xc3\x8c\xb2?'
p770
tp771
Rp772
aF0.10847408270238784
ag2
(g6
S'\xf0\x01\xbaz\x80\xae\xae?'
p773
tp774
Rp775
aa(lp776
F0.015151515151515152
aF0.02702702702702703
aF6.638567789166521
aF7.069023426578259
ag2
(g6
S'\x01~\x84\xf9\x8an\xcc?'
p777
tp778
Rp779
ag2
(g6
S'U\x16g\xb4{\xd8\xea?'
p780
tp781
Rp782
aF-0.1523809523809524
aF0.008285004142502106
ag2
(g6
S'\xb8\xe3J\x02\xf3\x9e\xc0\xbf'
p783
tp784
Rp785
ag2
(g6
S'@\x17]t\xd1E\x97\xbf'
p786
tp787
Rp788
aF-0.15140186915887843
ag2
(g6
S'\x9c\xddK\xa9\x87\x89\xc0\xbf'
p789
tp790
Rp791
aa(lp792
F0.004784688995215311
aF0.020833333333333332
aF5.564520407322694
aF6.881411303642535
ag2
(g6
S'\x04\x9aB\xa0)\x04\xda?'
p793
tp794
Rp795
ag2
(g6
S'\x84O\xc9xH\xf8\xe4?'
p796
tp797
Rp798
aF-0.15625
aF0.047619047619047616
ag2
(g6
S'\xf0j\xd3\x7f\x8f\x1c\xc2\xbf'
p799
tp800
Rp801
ag2
(g6
S'\xc0R\x11KE,\x85?'
p802
tp803
Rp804
aF-0.1423611111111111
ag2
(g6
S'\xd8\x87\xc6\xfa\xd0X\xbf\xbf'
p805
tp806
Rp807
aa(lp808
F0.009433962264150943
aF0.0049504950495049506
aF6.324358962381311
aF5.6240175061873385
ag2
(g6
S'\x94\xc0\x94\xc0\x94\xc0\xe4?'
p809
tp810
Rp811
ag2
(g6
S'\x1aW\x8e\x1aW\x8e\xda?'
p812
tp813
Rp814
aF0.3333333333333333
aF0.1111111111111111
ag2
(g6
S'\x89\x88\x88\x88\x88\x88\xd8?'
p815
tp816
Rp817
ag2
(g6
S'\x00\x00\x00\x00\x00\x00\xd0?'
p818
tp819
Rp820
aF0.3333333333333333
ag2
(g6
S'\x89\x88\x88\x88\x88\x88\xd8?'
p821
tp822
Rp823
aa(lp824
F0.013513513513513514
aF0.017543859649122806
aF6.556778356158042
aF6.709304340258298
ag2
(g6
S'\x1b/\x13\x86\xfb\xa4\xda?'
p825
tp826
Rp827
ag2
(g6
S'\x94\xc0\x94\xc0\x94\xc0\xe4?'
p828
tp829
Rp830
aF-0.050909090909090904
aF-0.06182065217391303
ag2
(g6
S'X22\xc8\xd2{\xb2\xbf'
p831
tp832
Rp833
ag2
(g6
S'h\x81\x95\x8f\x88\xd9\xb5\xbf'
p834
tp835
Rp836
aF-0.0707183693760875
ag2
(g6
S'\xc4\xb4u\xd2\r>\xb5\xbf'
p837
tp838
Rp839
aa(lp840
F0.014492753623188406
aF0.014705882352941176
aF6.621405651764134
aF6.6240652277998935
ag2
(g6
S'\xd0\x88&\x97v\xab\xe2?'
p841
tp842
Rp843
ag2
(g6
S'V\xbe\xb1\xf0\xb5\xdb\xde?'
p844
tp845
Rp846
aF0.032894736842105254
aF0.05303030303030304
ag2
(g6
S'\xe0\xcdh8z3\x8a?'
p847
tp848
Rp849
ag2
(g6
S'@\xd1\xa8\xf9W\x9b\x94?'
p850
tp851
Rp852
aF0.00249066002490661
ag2
(g6
S'@\xf1\x1a\xdc\xfck\x83\xbf'
p853
tp854
Rp855
aa(lp856
F0.02631578947368421
aF0.006172839506172839
aF7.064759027791802
aF5.872117789475416
ag2
(g6
S'\xf7\xd2\x15\x0b\xa0\xa6\xe5?'
p857
tp858
Rp859
ag2
(g6
S'\xeeh\xc6\x81?\xa7\xd8?'
p860
tp861
Rp862
aF0.24491978609625675
aF0.21162790697674422
ag2
(g6
S'<(J$\x84\xe9\xc0?'
p863
tp864
Rp865
ag2
(g6
S'\x9c\xc1\n\x9d\xc1\n\xbd?'
p866
tp867
Rp868
aF0.2090909090909091
ag2
(g6
S'\x94u\xa1\xf4\x0et\xbd?'
p869
tp870
Rp871
aa(lp872
F0.010869565217391304
aF0.02
aF6.4457198193855785
aF6.807934943699926
ag2
(g6
S'V\x11\xd8r\xd7X\xe3?'
p873
tp874
Rp875
ag2
(g6
S'\xe4\r\xfb\xaaVp\xdd?'
p876
tp877
Rp878
aF0.09988681380871534
aF0.033469945355191266
ag2
(g6
S'\xa4\xe3\xd1\xeeK\x01\xb0?'
p879
tp880
Rp881
ag2
(g6
S'\xc0\x02B\x87\xa2\xe3\x9b?'
p882
tp883
Rp884
aF0.09191583610188264
ag2
(g6
S"\xb0'#E\xc6}\xad?"
p885
tp886
Rp887
aa(lp888
F0.00398406374501992
aF0.011494252873563218
aF5.3471075307174685
aF6.47543271670409
ag2
(g6
S'\xd0\xaf\x03\x90\x89\xcd\xdc?'
p889
tp890
Rp891
ag2
(g6
S':#x\xe7\xf0\xa7\xe3?'
p892
tp893
Rp894
aF0.25909494232475594
aF0.15139116202945996
ag2
(g6
S'\xf8C\xd5\xa4_!\xc6?'
p895
tp896
Rp897
ag2
(g6
S'(\x1e$\xa1\xe2A\xc2?'
p898
tp899
Rp900
aF0.24901477832512314
ag2
(g6
S'\x9e[\xc0\xbfG\xa6\xc7?'
p901
tp902
Rp903
aa(lp904
F0.012987012987012988
aF0.009259259259259259
aF6.529418838262226
aF6.309918278226516
ag2
(g6
S'\x1a\x13\xe9\x81\xca\xd9\xcd?'
p905
tp906
Rp907
ag2
(g6
S'\xa6\xbb\xb2\x01\xb4\x88\xea?'
p908
tp909
Rp910
aF-0.02960102960102956
aF-0.09890109890109894
ag2
(g6
S'0d!\x0bY\xc8\xa2\xbf'
p911
tp912
Rp913
ag2
(g6
S'\xf0X\x810\xd2\x8e\xb5\xbf'
p914
tp915
Rp916
aF-0.00579150579150578
ag2
(g6
S'\x00X\x04\x10\xcb,\x95\xbf'
p917
tp918
Rp919
aa(lp920
F0.025
aF0.006493506493506494
aF6.9874902470009905
aF5.916202062607435
ag2
(g6
S'g\xa7O\xcdN\x9f\xea?'
p921
tp922
Rp923
ag2
(g6
S'\xe9>i\x01\xf4e\xcd?'
p924
tp925
Rp926
aF0.2263157894736842
aF-0.025000000000000022
ag2
(g6
S'.\xba\xe8\xa2\x8b.\xca?'
p927
tp928
Rp929
ag2
(g6
S'\x90$I\x92$I\xb2?'
p930
tp931
Rp932
aF0.1777777777777778
ag2
(g6
S'4\\\xc35\\\xc3\xc5?'
p933
tp934
Rp935
aa(lp936
F0.01818181818181818
aF0.011235955056179775
aF6.7226297948554485
aF6.464588303689961
ag2
(g6
S'\x83\xa3\xf5\xe4\xde\x96\xdf?'
p937
tp938
Rp939
ag2
(g6
S'\x92\x05\xe5\xfb\xddS\xe2?'
p940
tp941
Rp942
aF-0.020833333333333315
aF-0.041666666666666685
ag2
(g6
S'\x18\xaa\xce\x17\xaa\xce\xa7\xbf'
p943
tp944
Rp945
ag2
(g6
S'\x8cL\xf1D8Y\xb0\xbf'
p946
tp947
Rp948
aF-0.02192982456140352
ag2
(g6
S'8\xb5\xa4\xbb\xdf\xb2\xa5\xbf'
p949
tp950
Rp951
aa(lp952
F0.014705882352941176
aF0.004201680672268907
aF6.6240652277998935
aF5.4116460518550396
ag2
(g6
S'\xc9\xec\x87\x91\xcd\x04\xde?'
p953
tp954
Rp955
ag2
(g6
S'Y\xfc\xabsd\x06\xe3?'
p956
tp957
Rp958
aF0.07598039215686275
aF-0.05015673981191221
ag2
(g6
S'\xb8\xf3\xb4\x04\x9a\xa1\xb2?'
p959
tp960
Rp961
ag2
(g6
S'\x80\x17\x01C\xb8za?'
p962
tp963
Rp964
aF-0.0038275584206285407
ag2
(g6
S'\xc0\xa8d\x08u\xc6\x86?'
p965
tp966
Rp967
aa(lp968
F0.1
aF0.004784688995215311
aF8.100161446936607
aF5.564520407322694
ag2
(g6
S"g\xe5'\xc4Y\xf9\xe9?"
p969
tp970
Rp971
ag2
(g6
S'\xfe\xea~\xc10\xd3\xcf?'
p972
tp973
Rp974
aF0.2711538461538462
aF0.13594470046082957
ag2
(g6
S'\xe4>i\x80\xb8O\xca?'
p975
tp976
Rp977
ag2
(g6
S'`-\x13\xd8Z\xfd\xbf?'
p978
tp979
Rp980
aF0.2345679012345679
ag2
(g6
S'H\x16\xe3\xaf|I\xc6?'
p981
tp982
Rp983
aa(lp984
F0.02702702702702703
aF0.009433962264150943
aF7.069023426578259
aF6.324358962381311
ag2
(g6
S'\xf5}\x96\x88!\x8f\xe9?'
p985
tp986
Rp987
ag2
(g6
S'~0\x9a\xc7\xc2\xbe\xd0?'
p988
tp989
Rp990
aF0.2190476190476191
aF0.41001564945226915
ag2
(g6
S'\xda\x05m$\x15\xc1\xc2?'
p991
tp992
Rp993
ag2
(g6
S't\xd1E\x17]t\xd1?'
p994
tp995
Rp996
aF0.21806853582554514
ag2
(g6
S'\xbe\xffm\xcb\xa9\xab\xc2?'
p997
tp998
Rp999
aa(lp1000
F0.006172839506172839
aF0.01818181818181818
aF5.872117789475416
aF6.7226297948554485
ag2
(g6
S'\xd4\xbc\x9b"$\xcf\xdf?'
p1001
tp1002
Rp1003
ag2
(g6
S'4P\xac\x1fC)\xe2?'
p1004
tp1005
Rp1006
aF-0.10227272727272729
aF-0.033333333333333326
ag2
(g6
S'\xa0\x15\xe7,D\xa1\xa5\xbf'
p1007
tp1008
Rp1009
ag2
(g6
S'0\xbfPK\x10\xb1\x9d\xbf'
p1010
tp1011
Rp1012
aF-0.12200956937799046
ag2
(g6
S'0ogH\xcc\xdb\xa9\xbf'
p1013
tp1014
Rp1015
aa(lp1016
F0.03571428571428571
aF0.017543859649122806
aF7.258412150595307
aF6.709304340258298
ag2
(g6
S'B1rq\xd8R\xe7?'
p1017
tp1018
Rp1019
ag2
(g6
S'd5{\x92\xefc\xd5?'
p1020
tp1021
Rp1022
aF0.10909090909090907
aF0.12795608108108103
ag2
(g6
S'8\x186\xa9<s\xb0?'
p1023
tp1024
Rp1025
ag2
(g6
S'\xd8/\xfa\xc3\xf5>\xb4?'
p1026
tp1027
Rp1028
aF0.07092327226555412
ag2
(g6
S'\xc0.\x02\x9e|q\xa8?'
p1029
tp1030
Rp1031
aa(lp1032
F0.07142857142857142
aF0.011494252873563218
aF7.76004068088038
aF6.47543271670409
ag2
(g6
S'g\xa7O\xcdN\x9f\xea?'
p1033
tp1034
Rp1035
ag2
(g6
S'\xa6\xe1\xc3R\x0b/\xcd?'
p1036
tp1037
Rp1038
aF0.3342284282133906
aF0.2187141216991963
ag2
(g6
S'\x90>\xf4\xca%\x91\xce?'
p1039
tp1040
Rp1041
ag2
(g6
S'4\xe4\xdcg\x17\x10\xcb?'
p1042
tp1043
Rp1044
aF0.28624338624338624
ag2
(g6
S'F\x0b\x91\x08\x9f\x95\xcb?'
p1045
tp1046
Rp1047
aa(lp1048
F0.05555555555555555
aF0.009259259259259259
aF7.5126175446745105
aF6.309918278226516
ag2
(g6
S'\xa0GcT!)\xe6?'
p1049
tp1050
Rp1051
ag2
(g6
S'"pf\xb7\xa9\xc1\xd7?'
p1052
tp1053
Rp1054
aF0.15527950310559013
aF0.10187110187110188
ag2
(g6
S'\xb0\x80\xc6\xdd:\xaf\xb8?'
p1055
tp1056
Rp1057
ag2
(g6
S'\xb8\x1e\x85\xebQ\xb8\xae?'
p1058
tp1059
Rp1060
aF0.1567460317460317
ag2
(g6
S'\xb0\xb8q\xecL\xd9\xb8?'
p1061
tp1062
Rp1063
aa(lp1064
F0.02
aF0.025
aF6.807934943699926
aF6.9874902470009905
ag2
(g6
S'*\x82\x8c\x85\x1a\x83\xd7?'
p1065
tp1066
Rp1067
ag2
(g6
S'\xf0\x13\xb8\x15\xcd@\xe6?'
p1068
tp1069
Rp1070
aF-0.13157894736842102
aF0.08333333333333331
ag2
(g6
S'\x04\xd4\xcb\xebvW\xba\xbf'
p1071
tp1072
Rp1073
ag2
(g6
S'\xa89T,h\x0e\xa5?'
p1074
tp1075
Rp1076
aF-0.09682539682539687
ag2
(g6
S'\x9c7(\xe7\x86U\xb3\xbf'
p1077
tp1078
Rp1079
aa(lp1080
F0.01818181818181818
aF0.03571428571428571
aF6.7226297948554485
aF7.258412150595307
ag2
(g6
S'\x03n\xe6MB\x95\xd2?'
p1081
tp1082
Rp1083
ag2
(g6
S'\xd8\x89\x9d\xd8\x89\x9d\xe8?'
p1084
tp1085
Rp1086
aF-0.22499999999999998
aF-0.24774774774774772
ag2
(g6
S'\xe0\x10\xef\xb9\xf8\x7f\xc4\xbf'
p1087
tp1088
Rp1089
ag2
(g6
S'\xb8\x97p\xd9\xdc\x0b\xc6\xbf'
p1090
tp1091
Rp1092
aF-0.17283072546230438
ag2
(g6
S'\xf0;rK\xb0C\xc1\xbf'
p1093
tp1094
Rp1095
aa(lp1096
F0.1
aF0.02702702702702703
aF8.100161446936607
aF7.069023426578259
ag2
(g6
S'\xcd\x11\x1f`A:\xe4?'
p1097
tp1098
Rp1099
ag2
(g6
S'\x18\x16\x84\x86)\x9c\xdb?'
p1100
tp1101
Rp1102
aF0.09377289377289377
aF0.043389368468877865
ag2
(g6
S'\xa0\xd0\xb8\xeey\x02\xad?'
p1103
tp1104
Rp1105
ag2
(g6
S'\xc0\x90\n\xb6\x05\xd8\x97?'
p1106
tp1107
Rp1108
aF0.07205492096457833
ag2
(g6
S'\xb0\xe2\\\x1a\xd4\xff\xa6?'
p1109
tp1110
Rp1111
aa(lp1112
F0.004201680672268907
aF0.05555555555555555
aF5.4116460518550396
aF7.5126175446745105
ag2
(g6
S'\xa1T\x98x?r\xda?'
p1113
tp1114
Rp1115
ag2
(g6
S'\x95\xc0\x94\xc0\x94\xc0\xe4?'
p1116
tp1117
Rp1118
aF-0.1538789428815005
aF-0.07269338303821066
ag2
(g6
S'8\xba\x92?I"\xb9\xbf'
p1119
tp1120
Rp1121
ag2
(g6
S'\xc0\x83tW\x94\x08\xa5\xbf'
p1122
tp1123
Rp1124
aF-0.05800653594771238
ag2
(g6
S'\xe0\x94\x9cLUF\x9b\xbf'
p1125
tp1126
Rp1127
aa(lp1128
F0.025
aF0.07142857142857142
aF6.9874902470009905
aF7.76004068088038
ag2
(g6
S'F!\x88\xb88\xa2\xd7?'
p1129
tp1130
Rp1131
ag2
(g6
S'\xf0\x13\xb8\x15\xcd@\xe6?'
p1132
tp1133
Rp1134
aF-0.11403508771929827
aF-0.26679104477611937
ag2
(g6
S'P\x02\xec\xdb-\x9a\xb4\xbf'
p1135
tp1136
Rp1137
ag2
(g6
S'\xb2\xa94\xe4\xdcg\xc7\xbf'
p1138
tp1139
Rp1140
aF-0.137037037037037
ag2
(g6
S'\x04\x98S\xa0\x1c\xd1\xb7\xbf'
p1141
tp1142
Rp1143
aa(lp1144
F0.03571428571428571
aF0.1
aF7.258412150595307
aF8.100161446936607
ag2
(g6
S'Y\x96eY\x96e\xd9?'
p1145
tp1146
Rp1147
ag2
(g6
S'\xdd\xd7\x80\x0e\x93\x14\xe5?'
p1148
tp1149
Rp1150
aF-0.04615384615384621
aF0.016564952048822912
ag2
(g6
S'\x002J\x1a\xc0\xf6\x94\xbf'
p1151
tp1152
Rp1153
ag2
(g6
S'\xc0`I\xb4\xf6Q\x89?'
p1154
tp1155
Rp1156
aF-0.05588922255588924
ag2
(g6
S'\xa0\x19\x80\xe6L\xb3\x99\xbf'
p1157
tp1158
Rp1159
aa(lp1160
F0.07142857142857142
aF0.05555555555555555
aF7.76004068088038
aF7.5126175446745105
ag2
(g6
S'=\xe9\x12~H\xe3\xe5?'
p1161
tp1162
Rp1163
ag2
(g6
S'\x85\xd6wP\x89\x01\xd8?'
p1164
tp1165
Rp1166
aF0.10411899313501138
aF0.15530455828963285
ag2
(g6
S'\x90\x1a@\xd6.\x91\xba?'
p1167
tp1168
Rp1169
ag2
(g6
S'\x86\x9c\xfb\xec\x02b\xc3?'
p1170
tp1171
Rp1172
aF0.10092592592592597
ag2
(g6
S'hXAs\xa6\xe0\xb8?'
p1173
tp1174
Rp1175
aa(lp1176
F0.1
aF0.05555555555555555
aF8.100161446936607
aF7.5126175446745105
ag2
(g6
S'D\xa6a\xbbY\x9e\xe4?'
p1177
tp1178
Rp1179
ag2
(g6
S'\xa0T\x98x?r\xda?'
p1180
tp1181
Rp1182
aF0.10992196209587513
aF0.0780296425457716
ag2
(g6
S'x\x15\x92\x84Nv\xb5?'
p1183
tp1184
Rp1185
ag2
(g6
S'<\xf4pn\xe6\x04\xb6?'
p1186
tp1187
Rp1188
aF0.10956790123456794
ag2
(g6
S'`vJ\x9b\x0c9\xb6?'
p1189
tp1190
Rp1191
aa(lp1192
F0.016129032258064516
aF0.012048192771084338
aF6.673297967767654
aF6.499787040655854
ag2
(g6
S'\x00\x19Iq\n\xc7\xe3?'
p1193
tp1194
Rp1195
ag2
(g6
S'P\x1d@\xcc^\x9f\xdc?'
p1196
tp1197
Rp1198
aF0.11234764175940642
aF-0.02631578947368418
ag2
(g6
S'\xc4rU\xc6\xd4\xa1\xb5?'
p1199
tp1200
Rp1201
ag2
(g6
S'\x00\xed\xe0\x08"\xadg?'
p1202
tp1203
Rp1204
aF0.09895052473763122
ag2
(g6
S'\xd0\x9c\xc5I\x98a\xb6?'
p1205
tp1206
Rp1207
aa(lp1208
F0.015873015873015872
aF0.011764705882352941
aF6.660575149839686
aF6.484635235635252
ag2
(g6
S'e\xe0\xe9\xd6\xfc\xb0\xd8?'
p1209
tp1210
Rp1211
ag2
(g6
S'Z\x807\xb0"\xae\xe5?'
p1212
tp1213
Rp1214
aF-0.0015008576329330614
aF-0.03216374269005845
ag2
(g6
S'\x00Q\x84\\\xdc\x8d[?'
p1215
tp1216
Rp1217
ag2
(g6
S'\x10"\xddp\xa2`\xa0\xbf'
p1218
tp1219
Rp1220
aF-0.044393157751832724
ag2
(g6
S'\xd0\xd2\xc1 !,\x9d\xbf'
p1221
tp1222
Rp1223
aa(lp1224
F0.00980392156862745
aF0.037037037037037035
aF6.395261598115449
aF7.261927092702751
ag2
(g6
S'\x0e\xe55\x94\xd7P\xda?'
p1225
tp1226
Rp1227
ag2
(g6
S'\x8fQ\x0b\xdee\xce\xe4?'
p1228
tp1229
Rp1230
aF-0.08724202626641653
aF-0.22499999999999998
ag2
(g6
S'\xa0B\xe83H\xc4\x9d\xbf'
p1231
tp1232
Rp1233
ag2
(g6
S'\x188\x81\x138\x81\xa3\xbf'
p1234
tp1235
Rp1236
aF-0.10989010989010989
ag2
(g6
S'`\x03\xbc )\xff\xa0\xbf'
p1237
tp1238
Rp1239
aa(lp1240
F0.00392156862745098
aF0.03125
aF5.3230099791384085
aF7.200424892944957
ag2
(g6
S'\xb00\xabQ\xc4\xa1\xd3?'
p1241
tp1242
Rp1243
ag2
(g6
S'\xf3k\x0f\xb9\xac\x18\xe8?'
p1244
tp1245
Rp1246
aF-0.4431818181818182
aF-0.3870967741935484
ag2
(g6
S'\x16\xd3YLg1\xdd\xbf'
p1247
tp1248
Rp1249
ag2
(g6
S'\xc2\xf9\x18\x9c\x8f\xc1\xd9\xbf'
p1250
tp1251
Rp1252
aF-0.43820224719101125
ag2
(g6
S'\xcf\x11(\xdaj\xf0\xdc\xbf'
p1253
tp1254
Rp1255
aa(lp1256
F0.02857142857142857
aF0.008547008547008548
aF7.081708586105575
aF6.272877006546167
ag2
(g6
S'\xa5\xab\xdd\x06e\x85\xd8?'
p1257
tp1258
Rp1259
ag2
(g6
S'\xe4\xe6\x1b\xa8a\xcc\xe5?'
p1260
tp1261
Rp1262
aF-0.007407407407407363
aF-0.1375
ag2
(g6
S'\xf8"\xee\xd1\xe2(\xa0\xbf'
p1263
tp1264
Rp1265
ag2
(g6
S'\xc4\x9f\t\x7f&\xfc\xb9\xbf'
p1266
tp1267
Rp1268
aF0.0028490028490028574
ag2
(g6
S'\x90\xcf\xf5\xc7\xcb`\x94\xbf'
p1269
tp1270
Rp1271
aa(lp1272
F0.006944444444444444
aF0.0030959752321981426
aF6.023447592961033
aF4.997212273764115
ag2
(g6
S'\xab\xaa\xaa\xaa\xaa\xaa\xea?'
p1273
tp1274
Rp1275
ag2
(g6
S'\n\xf6l\xeeeJ\xcd?'
p1276
tp1277
Rp1278
aF0.4
aF0.0
ag2
(g6
S'\x9e\xd8\x89\x9d\xd8\x89\xdd?'
p1279
tp1280
Rp1281
aF0.0
aF0.4
ag2
(g6
S'\x9e\xd8\x89\x9d\xd8\x89\xdd?'
p1282
tp1283
Rp1284
aa(lp1285
F0.0136986301369863
aF0.02127659574468085
aF6.573680166960646
aF6.882437470997847
ag2
(g6
S'\x90\x10\x9eo\xe6\x80\xd6?'
p1286
tp1287
Rp1288
ag2
(g6
S'S\xe1\xe3\xd0\x14\xd3\xe6?'
p1289
tp1290
Rp1291
aF-0.07947398513436249
aF-0.19924242424242422
ag2
(g6
S'\xd0\xb2,\xcb\xb2,\xab\xbf'
p1292
tp1293
Rp1294
ag2
(g6
S'\xe8\x9b\x98\xbe\x89\xe9\xbb\xbf'
p1295
tp1296
Rp1297
aF-0.09036918138041733
ag2
(g6
S'\xa4\xe2H=\x063\xb0\xbf'
p1298
tp1299
Rp1300
aa(lp1301
F0.009900990099009901
aF0.029411764705882353
aF6.406879986069314
aF7.166265974133638
ag2
(g6
S'Y\x96eY\x96e\xd9?'
p1302
tp1303
Rp1304
ag2
(g6
S'\xa1g0\xae\x0fN\xe5?'
p1305
tp1306
Rp1307
aF-0.2875
aF-0.3196581196581197
ag2
(g6
S'\xb8|\x87\x08\x01\x8d\xc5\xbf'
p1308
tp1309
Rp1310
ag2
(g6
S'\x96f\xe3\xd7\x95\xd7\xca\xbf'
p1311
tp1312
Rp1313
aF-0.24288983327884933
ag2
(g6
S'\xc8`\xb0<\xdd\xd9\xbf\xbf'
p1314
tp1315
Rp1316
aa(lp1317
F0.004405286343612335
aF0.018867924528301886
aF5.493061443340548
aF6.740519359606223
ag2
(g6
S'p\xac\xfe@\x8f\x94\xe0?'
p1318
tp1319
Rp1320
ag2
(g6
S'!:\xdc\x9f\x9dw\xe1?'
p1321
tp1322
Rp1323
aF-0.12016806722689077
aF-0.2
ag2
(g6
S'\xf4(\\\x8f\xc2\xf5\xb8\xbf'
p1324
tp1325
Rp1326
ag2
(g6
S'\xe0\xe5\x14\xbc\x9c\x82\x87\xbf'
p1327
tp1328
Rp1329
aF-0.12424969987995199
ag2
(g6
S'\xdcn\xf87\xff"\xbd\xbf'
p1330
tp1331
Rp1332
aa(lp1333
F0.030303030303030304
aF0.01639344262295082
aF7.166265974133638
aF6.68586094706836
ag2
(g6
S'\xd1\x18L\xd8\x1f\xd9\xe9?'
p1334
tp1335
Rp1336
ag2
(g6
S'\xdb\x02\x82~\r8\xd0?'
p1337
tp1338
Rp1339
aF0.1454545454545454
aF0.5616438356164384
ag2
(g6
S'8\xc4\x1e\xa3\x9f\xd5\xb0?'
p1340
tp1341
Rp1342
ag2
(g6
S'xM\x80\xf4\xb4#\xd3?'
p1343
tp1344
Rp1345
aF0.15581542351453853
ag2
(g6
S'\xb8u\x7f\xd7\xe1\x1f\xb5?'
p1346
tp1347
Rp1348
aa(lp1349
F0.021739130434782608
aF0.011111111111111112
aF6.882437470997847
aF6.447305862541213
ag2
(g6
S'\x845K\x8cO\x99\xe6?'
p1350
tp1351
Rp1352
ag2
(g6
S'"Z\\\xae\x88\x16\xd7?'
p1353
tp1354
Rp1355
aF0.21309872922776146
aF0.2373737373737374
ag2
(g6
S'h\xd1\x94\x93\xc2\xc8\xbd?'
p1356
tp1357
Rp1358
ag2
(g6
S'\x1c\xd0h\x06y)\xbe?'
p1359
tp1360
Rp1361
aF0.2141663882392249
ag2
(g6
S'\xdc\xb6m\xdb\xb6m\xbb?'
p1362
tp1363
Rp1364
aa(lp1365
F0.011764705882352941
aF0.3333333333333333
aF6.484635235635252
aF8.741935464094144
ag2
(g6
S'^,`K\xf6\x82\xcf?'
p1366
tp1367
Rp1368
ag2
(g6
S'\x04\x9aB\xa0)\x04\xea?'
p1369
tp1370
Rp1371
aF-0.331596035543404
aF-0.31228070175438594
ag2
(g6
S'\xfe\x1d\xab\x10\xbe\xcd\xd1\xbf'
p1372
tp1373
Rp1374
ag2
(g6
S'v\xd4"\xe4\xaf\xd9\xd1\xbf'
p1375
tp1376
Rp1377
aF-0.28959404026592483
ag2
(g6
S'\xfa\xbf\xd3\xecc\x18\xcf\xbf'
p1378
tp1379
Rp1380
aa(lp1381
F0.012048192771084338
aF0.0625
aF6.499787040655854
aF7.575584651557793
ag2
(g6
S"'i\x16v\x9f\xef\xca?"
p1382
tp1383
Rp1384
ag2
(g6
S'\xce\x8eZ\x84\xfc5\xeb?'
p1385
tp1386
Rp1387
aF-0.23747276688453162
aF-0.14035087719298245
ag2
(g6
S'\xa2\x0e\xa4\xbb\xb5\x0e\xc7\xbf'
p1388
tp1389
Rp1390
ag2
(g6
S'\x98\x99\x99\x99\x99\x99\xb9\xbf'
p1391
tp1392
Rp1393
aF-0.25031928480204346
ag2
(g6
S'\x14\x1b\t\xe2\xbe\x1a\xc9\xbf'
p1394
tp1395
Rp1396
aa(lp1397
F0.029411764705882353
aF0.004975124378109453
aF7.166265974133638
aF5.648974238161206
ag2
(g6
S"'<\xd3\xdf\xa0\xdb\xe5?"
p1398
tp1399
Rp1400
ag2
(g6
S'N2>\xa1%_\xd8?'
p1401
tp1402
Rp1403
aF0.17065217391304344
aF0.12307692307692308
ag2
(g6
S'p\x15\xcc4H\x88\xbd?'
p1404
tp1405
Rp1406
ag2
(g6
S'N\x85h\xc3\xe7\x8f\xc1?'
p1407
tp1408
Rp1409
aF0.14906832298136646
ag2
(g6
S'`\x17m\x04\xec\xce\xb9?'
p1410
tp1411
Rp1412
aa(lp1413
F0.00392156862745098
aF0.02857142857142857
aF5.3230099791384085
aF7.081708586105575
ag2
(g6
S'\xd7\xb1h\xd6\xb1h\xd6?'
p1414
tp1415
Rp1416
ag2
(g6
S'\xadlu\x01\xc2\xca\xe6?'
p1417
tp1418
Rp1419
aF-0.4
aF-0.3
ag2
(g6
S'\xd6a\x94\xa9x\xae\xd9\xbf'
p1420
tp1421
Rp1422
ag2
(g6
S'Lg1\x9d\xc5t\xd6\xbf'
p1423
tp1424
Rp1425
aF-0.41025641025641024
ag2
(g6
S'<\xc9RG\x88m\xda\xbf'
p1426
tp1427
Rp1428
aa(lp1429
F0.0136986301369863
aF0.030303030303030304
aF6.573680166960646
aF7.166265974133638
ag2
(g6
S'\xffn\xc5V#\xbd\xd4?'
p1430
tp1431
Rp1432
ag2
(g6
S'v\xd7]w\xddu\xe7?'
p1433
tp1434
Rp1435
aF-0.10606060606060602
aF-0.2699771689497717
ag2
(g6
S'\xe0\xe5\x14\xbc\x9c\x82\xa7\xbf'
p1436
tp1437
Rp1438
ag2
(g6
S'\x90r\xb4\rR=\xc3\xbf'
p1439
tp1440
Rp1441
aF-0.11047031918067013
ag2
(g6
S"\x88='\xb6EO\xa9\xbf"
p1442
tp1443
Rp1444
aa(lp1445
F0.1111111111111111
aF0.021739130434782608
aF8.128585200374497
aF6.882437470997847
ag2
(g6
S"\x82M\xd0\x7f'J\xe7?"
p1446
tp1447
Rp1448
ag2
(g6
S'0k\xa3*\xf7;\xd5?'
p1449
tp1450
Rp1451
aF0.18731924360400443
aF0.14920634920634923
ag2
(g6
S'\x9c\xee\x8ee\x15*\xc2?'
p1452
tp1453
Rp1454
ag2
(g6
S'\x98\xf4\xaa\x9d\xa5!\xbe?'
p1455
tp1456
Rp1457
aF0.20299524451699902
ag2
(g6
S'\x14\xd1)\xd5]\xac\xc5?'
p1458
tp1459
Rp1460
aa(lp1461
F0.006944444444444444
aF0.037037037037037035
aF6.023447592961033
aF7.261927092702751
ag2
(g6
S'\\V\x0c\x94\xf0F\xd3?'
p1462
tp1463
Rp1464
ag2
(g6
S'=\xad`\xa9O+\xe8?'
p1465
tp1466
Rp1467
aF-0.14878048780487807
aF-0.475
ag2
(g6
S'\xb0\xedt\xe8 \xa8\xab\xbf'
p1468
tp1469
Rp1470
ag2
(g6
S'\xde\xdd\xdd\xdd\xdd\xdd\xdd\xbf'
p1471
tp1472
Rp1473
aF-0.1384615384615384
ag2
(g6
S'\xa0q\xa0g\x97\xe3\xa7\xbf'
p1474
tp1475
Rp1476
aa(lp1477
F0.018867924528301886
aF0.16666666666666666
aF6.740519359606223
aF8.468002947225466
ag2
(g6
S'OE\x02\xc9\x8c\xae\xc8?'
p1478
tp1479
Rp1480
ag2
(g6
S'\xd2g\x96m\xc9\xba\xeb?'
p1481
tp1482
Rp1483
aF-0.31071428571428567
aF-0.26084337349397585
ag2
(g6
S'\x08\x9en\xcd\x0f\x8b\xcc\xbf'
p1484
tp1485
Rp1486
ag2
(g6
S'r\xfa\x03\x11\xc1\x14\xcb\xbf'
p1487
tp1488
Rp1489
aF-0.31054831571182684
ag2
(g6
S'\xf4\x86\xc6}9&\xcb\xbf'
p1490
tp1491
Rp1492
aa(lp1493
F0.02857142857142857
aF0.1111111111111111
aF7.081708586105575
aF8.128585200374497
ag2
(g6
S'\xb9y\xa2\x8d\xe2\xeb\xc9?'
p1494
tp1495
Rp1496
ag2
(g6
S'\\\xb6l\xd9\xb2e\xeb?'
p1497
tp1498
Rp1499
aF-0.3034482758620689
aF-0.4047619047619048
ag2
(g6
S'n(\rU\xfa\x95\xd0\xbf'
p1500
tp1501
Rp1502
ag2
(g6
S'\xbc@A\xe7\xb8\x0b\xd4\xbf'
p1503
tp1504
Rp1505
aF-0.29958814932908195
ag2
(g6
S'N\x1fB\xa3\xa6h\xd0\xbf'
p1506
tp1507
Rp1508
aa(lp1509
F0.0625
aF0.029411764705882353
aF7.575584651557793
aF7.166265974133638
ag2
(g6
S'B{\t\xed%\xb4\xe7?'
p1510
tp1511
Rp1512
ag2
(g6
S'M\x83\xb0\x81\xf6\x1c\xd4?'
p1513
tp1514
Rp1515
aF0.15462962962962967
aF0.23589743589743584
ag2
(g6
S'p\x05i\xe0\x00\xca\xc0?'
p1516
tp1517
Rp1518
ag2
(g6
S'~Gd\t\xe5<\xc3?'
p1519
tp1520
Rp1521
aF0.17621348056130665
ag2
(g6
S'x\x84\x98\xf8\xae\xa6\xc2?'
p1522
tp1523
Rp1524
aa(lp1525
F0.037037037037037035
aF0.018867924528301886
aF7.261927092702751
aF6.740519359606223
ag2
(g6
S'\x81\xa8td\xcf@\xe4?'
p1526
tp1527
Rp1528
ag2
(g6
S'\x0e\xca\xfd\x16D\xa2\xdb?'
p1529
tp1530
Rp1531
aF0.13449477351916378
aF0.024999999999999967
ag2
(g6
S'P\xd9a\xear\xfb\xb3?'
p1532
tp1533
Rp1534
ag2
(g6
S'\xf0j\xd3\x7f\x8f\x1c\x92?'
p1535
tp1536
Rp1537
aF0.1200941915227629
ag2
(g6
S'\xc0\xaa\xb6\x02\xe3\xd7\xab?'
p1538
tp1539
Rp1540
aa(lp1541
F0.3333333333333333
aF0.030303030303030304
aF8.741935464094144
aF7.166265974133638
ag2
(g6
S'\xd4\xf5\xe9\xfat}\xea?'
p1542
tp1543
Rp1544
ag2
(g6
S'\x0b\xbbS\x9aDQ\xcd?'
p1545
tp1546
Rp1547
aF0.1838687628161313
aF0.1716894977168949
ag2
(g6
S'$\x13\xb8\xd7\xfc~\xc7?'
p1548
tp1549
Rp1550
ag2
(g6
S'(t\x15\xc1\xc9\x17\xc6?'
p1551
tp1552
Rp1553
aF0.18186635578400723
ag2
(g6
S'((\xect\x12\xb9\xc6?'
p1554
tp1555
Rp1556
aa(lp1557
F0.1111111111111111
aF0.037037037037037035
aF8.128585200374497
aF7.261927092702751
ag2
(g6
S'ExR\x90\xfcy\xe5?'
p1558
tp1559
Rp1560
ag2
(g6
S'e\xe0\xe9\xd6\xfc\xb0\xd8?'
p1561
tp1562
Rp1563
aF0.15466778805719084
aF0.22976190476190483
ag2
(g6
S"\xe0'\x12\x88,\x8b\xc2?"
p1564
tp1565
Rp1566
ag2
(g6
S'T\x94)MAE\xc9?'
p1567
tp1568
Rp1569
aF0.17138302112395376
ag2
(g6
S'p\x03.\xc0\xc6\x9f\xc4?'
p1570
tp1571
Rp1572
aa(lp1573
F0.0625
aF0.3333333333333333
aF7.575584651557793
aF8.741935464094144
ag2
(g6
S'\xe0\x0fM\xfc\xf7C\xd3?'
p1574
tp1575
Rp1576
ag2
(g6
S'\x98\xfa!\x98\xfa!\xe8?'
p1577
tp1578
Rp1579
aF-0.09969367864104706
aF-0.06666666666666665
ag2
(g6
S'pI\xf2YU\xab\xb8\xbf'
p1580
tp1581
Rp1582
ag2
(g6
S'\xd0\x12v\xf3[\x08\xb8\xbf'
p1583
tp1584
Rp1585
aF-0.10090929252605896
ag2
(g6
S'\xc8\xf3\xfa\xa9\x8aV\xb8\xbf'
p1586
tp1587
Rp1588
aa(lp1589
F0.3333333333333333
aF0.037037037037037035
aF8.741935464094144
aF7.261927092702751
ag2
(g6
S'\xafT\x02^zG\xe8?'
p1590
tp1591
Rp1592
ag2
(g6
S'W!\xf7\xf8\xaa\x1d\xd3?'
p1593
tp1594
Rp1595
aF0.18054282046579861
aF0.2583333333333333
ag2
(g6
S'\xd0\x16\xfal\xa1\xcf\xc6?'
p1596
tp1597
Rp1598
ag2
(g6
S'x\x1a\xcc\n?\x15\xcd?'
p1599
tp1600
Rp1601
aF0.19207738369415017
ag2
(g6
S'\x00\x8b3u^\x96\xc7?'
p1602
tp1603
Rp1604
aa.