(lp0
VZverev A.
p1
aVWawrinka S.
p2
aVBautista Agut R.
p3
aVBerdych T.
p4
aVTroicki V.
p5
aVYouzhny M.
p6
aVSousa J.
p7
aVLorenzi P.
p8
aVRaonic M.
p9
aVMedvedev D.
p10
aVKuznetsov An.
p11
aVLajovic D.
p12
aVSidorenko A.
p13
aVRublev A.
p14
aVBerankis R.
p15
aVRosol L.
p16
aVDonskoy E.
p17
aVElias G.
p18
aVTipsarevic J.
p19
aVAlbot R.
p20
aVVerdasco F.
p21
aVBublik A.
p22
aVZverev M.
p23
aVRamos-Vinolas A.
p24
aVKhachanov K.
p25
aVSchwartzman D.
p26
aVMannarino A.
p27
aVPouille L.
p28
aVThiem D.
p29
aVGoffin D.
p30
aVSimon G.
p31
aVMahut N.
p32
aVBenneteau J.
p33
aVMuller G.
p34
aVJaziri M.
p35
aVMarchenko I.
p36
aVHerbert P.H.
p37
aVStruff J.L.
p38
aVGarcia-Lopez G.
p39
aVMillot V.
p40
aVBasilashvili N.
p41
aVGojowczyk P.
p42
aVBrown D.
p43
aVDodig I.
p44
aVHalys Q.
p45
aVCervantes I.
p46
aVRobredo T.
p47
aVSeppi A.
p48
aVPaire B.
p49
aVMathieu P.H.
p50
aVDzumhur D.
p51
aVBarrere G.
p52
aVAlmagro N.
p53
aVZeballos H.
p54
aVKlizan M.
p55
aVDjokovic N.
p56
aVNishikori K.
p57
aVMonfils G.
p58
aVDel Potro J.M.
p59
aVMurray A.
p60
aVDimitrov G.
p61
aVKarlovic I.
p62
aVEdmund K.
p63
aVNadal R.
p64
aVTsonga J.W.
p65
aVSock J.
p66
aVBaghdatis M.
p67
aVDonaldson J.
p68
aVEvans D.
p69
aVFerrer D.
p70
aVCarreno Busta P.
p71
aVIsner J.
p72
aVCilic M.
p73
aVHarrison R.
p74
aVAnderson K.
p75
aVYoung D.
p76
aVFognini F.
p77
aVJohnson S.
p78
aVGiannessi A.
p79
aVKyrgios N.
p80
aVChardy J.
p81
aVLopez F.
p82
aVGranollers M.
p83
aVDelbonis F.
p84
aVChiudinelli M.
p85
aVStakhovsky S.
p86
aVCuevas P.
p87
aVSatral J.
p88
aVPella G.
p89
aVDuckworth J.
p90
aVDarcis S.
p91
aVPospisil V.
p92
aVEscobedo E.
p93
aVBedene A.
p94
aVBerlocq C.
p95
aVStepanek R.
p96
aVMonaco J.
p97
aVMillman J.
p98
aVLu Y.H.
p99
aVMayer F.
p100
aVTomic B.
p101
aVEstrella Burgos V.
p102
aVHarrison C.
p103
aVGabashvili T.
p104
aVKudla D.
p105
aVQuerrey S.
p106
aVMmoh M.
p107
aVIvashka I.
p108
aVBrands D.
p109
aVBecker B.
p110
aVFabbiano T.
p111
aVRam R.
p112
aVJanowicz J.
p113
aVVesely J.
p114
aVMyneni S.
p115
aVHaase R.
p116
aVFritz T.
p117
aVAndreozzi G.
p118
aVKukushkin M.
p119
aVSela D.
p120
aVNishioka Y.
p121
aVKovalik J.
p122
aVClezar G.
p123
aVMcdonald M.
p124
aVBaker B.
p125
aVIstomin D.
p126
aVTiafoe F.
p127
aVRobert S.
p128
aVFucsovics M.
p129
aVFratangelo B.
p130
aVGasquet R.
p131
aVDutra Silva R.
p132
aVBellucci T.
p133
aVThompson J.
p134
aVVan Rijthoven T.
p135
aVMcgee J.
p136
aVSugita Y.
p137
aVCoric B.
p138
aVOpelka R.
p139
aVGiraldo S.
p140
aVKamke T.
p141
aVKrajicek A.
p142
aVRubin N.
p143
aVMonteiro T.
p144
aVGomez L.
p145
aVHank T.
p146
aVWeintraub A.
p147
aVDolgopolov O.
p148
aVSmyczek T.
p149
aVSmith A.
p150
aVSmith J.P.
p151
aVSijsling I.
p152
aVEubanks C.
p153
aVGroth S.
p154
aVShapovalov D.
p155
aVDiez S.
p156
aVPolansky P.
p157
aVNovikov D.
p158
aVGulbis E.
p159
aVGomez E.
p160
aVDancevic F.
p161
aVGonzalez A.
p162
aVTursunov D.
p163
aVLacko L.
p164
aVKuznetsov Al.
p165
aVMartin A.
p166
aVMayer L.
p167
aVOlivo R.
p168
aVCacic N.
p169
aVGhem A.
p170
aVLopez-Perez E.
p171
aVKrajinovic F.
p172
aVLinzer M.
p173
aVSerdarusic N.
p174
aVMektic N.
p175
aVMelzer G.
p176
aVMelzer J.
p177
aVPavlasek A.
p178
aVKohlschreiber P.
p179
aVGimeno-Traver D.
p180
aVMunoz De La Nava D.
p181
aVCarballes Baena R.
p182
aVDaniel T.
p183
aVNovak D.
p184
aVMontanes A.
p185
aVSantillan A.
p186
aVGonzalez M.
p187
aVBagnis F.
p188
aVBerrer M.
p189
aVVolandri F.
p190
aVDe Schepper K.
p191
aVYmer E.
p192
aVBasic M.
p193
aVLaaksonen H.
p194
aVMertl J.
p195
aVKravchuk K.
p196
aVLamasine T.
p197
aVVelotti A.
p198
aVDe Bakker T.
p199
aVBellier A.
p200
aVNikles J.
p201
aVMarti Y.
p202
aVKozlov S.
p203
aVPrzysiezny M.
p204
aVWessels L.
p205
aVZemlja G.
p206
aVKicker N.
p207
aVMoeller M.
p208
aVArnaboldi A.
p209
aVSoderlund C.
p210
aVHemery C.
p211
aVSimonsson F.
p212
aVLindell C.
p213
aVTrungelliti M.
p214
aVZopp J.
p215
aVArvidsson I.
p216
aVFederer R.
p217
aVBarton M.
p218
aVRoger-Vasselin E.
p219
aVWillis M.
p220
aVCopil M.
p221
aVOlivetti A.
p222
aVBroady L.
p223
aVSkugor F.
p224
aVKudryavtsev A.
p225
aVSaville L.
p226
aVBemelmans R.
p227
aVWard A.
p228
aVKlein B.
p229
aVWard J.
p230
aVHernych J.
p231
aVIto T.
p232
aVMartin F.
p233
aVBourgue M.
p234
aVChung H.
p235
aVIlhan M.
p236
aVSamper-Montana J.
p237
aVBolelli S.
p238
aVDjere L.
p239
aVUngur A.
p240
aVCecchinato M.
p241
aVOrtega-Olmedo R.
p242
aVBeck A.
p243
aVGarin C.
p244
aVSonego L.
p245
aVCaruso S.
p246
aVStebe C.M.
p247
aVMarterer M.
p248
aVBachinger M.
p249
aVIlkel C.
p250
aVSilva F.
p251
aVSousa P.
p252
aVSetkic A.
p253
aVMunar J.
p254
aVCachin P.
p255
aVHerbert P.H
p256
aVAhouda A.
p257
aVGiustino L.
p258
aVEl Amrani R.
p259
aVOuahab L.
p260
aVPaul T.
p261
aVBautista R.
p262
aVJarry N.
p263
aVCarreno-Busta P.
p264
aVSarkissian A.
p265
aVMunoz-De La Nava D.
p266
aVRola B.
p267
aVVanni L.
p268
aVBhambri Y.
p269
aVPatino L.
p270
aVAndujar P.
p271
aVSouza J.
p272
aVGuez D.
p273
aVRamanathan R.
p274
aVEbden M.
p275
aVArguello F.
p276
aVKuzmanov D.
p277
aVLazov A.
p278
aVFalla A.
p279
aVEscobar G.
p280
aVLapentti G.
p281
aVRiba P.
p282
aVHewitt L.
p283
aVJasika O.
p284
aVWu D.
p285
aVVenus M.
p286
aVTearney F.
p287
aVKaratsev A.
p288
aVZayid M. S.
p289
aVPavic A.
p290
aVDevvarman S.
p291
aVAnderson O.
p292
aVMitchell B.
p293
aVGombos N.
p294
aVHaider-Maurer A.
p295
aVHaas T.
p296
aVMiedler L.
p297
aVNieminen J.
p298
aVKokkinakis T.
p299
aVYmer M.
p300
aVKubot L.
p301
aVSoeda G.
p302
aVBai Y.
p303
aVZhang Ze
p304
aVUchiyama Y.
p305
aVMoriya H.
p306
aVZhang Zh.
p307
aVNiki T.
p308
aVGolubev A.
p309
aVShyla Y.
p310
aVNedovyesov A.
p311
aVFish M.
p312
aVShane R.
p313
aVBester P.
p314
aVPeliwo F.
p315
aVKing D.
p316
aVMatosevic M.
p317
aVReister J.
p318
aVCoppejans K.
p319
aVTeixeira M.
p320
aVTrinker B.
p321
aVKavcic B.
p322
aVAndroic T.
p323
aVTrevisan M.
p324
aVDelic M.
p325
aVMenendez-Maceiras A.
p326
aVGomez A.
p327
aVDemoliner M.
p328
aVGalan D.E.
p329
aVBarrientos N.
p330
aVEriksson M.
p331
aVBossel A.
p332
aVDesein N.
p333
aVPavic M.
p334
aVGigounon G.
p335
aVHamou M.
p336
aVMina G.
p337
aVDonati M.
p338
aVGaio F.
p339
aVLedovskikh M.
p340
aVMachado R.
p341
aVVega Hernandez D.
p342
aVFischer M.
p343
aVLestienne C.
p344
aVBalleret B.
p345
aVDe Greef A.
p346
aVIdmbarek Y.
p347
aVHanescu V.
p348
aVBolt A.
p349
aVMolteni A.
p350
aVGarza D.
p351
aVQuigley E.
p352
aVHuta Galung J.
p353
aVVeic A.
p354
aVLokoli L.
p355
aVZhang Z.
p356
aVWang J.
p357
aVPuetz T.
p358
aVRussell M.
p359
aVStatham J.
p360
aVAli Mutawa J.M.
p361
aVSafwat M.
p362
aVPrashanth V.
p363
aVWilliams R.
p364
aVMecir M.
p365
aVRosenholm P.
p366
aVBaluda V.
p367
aVKrstin P.
p368
aVWang C.
p369
aVHerbert P-H.
p370
aVGerasimov E.
p371
aVOuyang B.
p372
aVGao X.
p373
aVPetzschner P.
p374
aVOswald P.
p375
aVBurquier G.
p376
aVTakeuchi K.
p377
aVKohlschreiber P..
p378
aVSerra F.
p379
aVGiron M.
p380
aVOdesnik W.
p381
aVLlodra M.
p382
aVKlahn B.
p383
aVGinepri R.
p384
aVBuchanan C.
p385
aVSchnur B.
p386
aVRamos A.
p387
aVGalovic V.
p388
aVDe Paula F.
p389
aVPasha N.
p390
aVLondero J.I.
p391
aVCabal J.S.
p392
aVKing K.
p393
aVStruvay E.
p394
aVDustov F.
p395
aVSorensen L.
p396
aVDavydenko P.
p397
aVKrueger M.
p398
aVThompson C.
p399
aVSmethurst D.
p400
aVCox D.
p401
aVGuccione C.
p402
aVMichon A.
p403
aVDavydenko N.
p404
aVStarace P.
p405
aVVaisse M.
p406
aVKubler J.
p407
aVMilojevic N.
p408
aVTravaglia S.
p409
aVCiorcila P.
p410
aVLopez M.
p411
aVViola M.
p412
aVRamirez-Hidalgo R.
p413
aVBogomolov A.
p414
aVKhaddari H.
p415
aVKosakowski D.
p416
aVReyes-Varela M.A.
p417
aVPhau B.
p418
aVAlund M.
p419
aVHajek J.
p420
aVLama G.
p421
aVGicquel M.
p422
aVArtunedo Martinavarro A.
p423
aVStruff J-L.
p424
aVHossam K.
p425
aVZayed M.S.
p426
aVNedunchezhiyan J.
p427
aVPospisil J.
p428
aVBozoljac I.
p429
aVJohansson J.
p430
aVLanger N.
p431
aVSekulic M.
p432
aVNedovyesov O.
p433
aVGong M.X.
p434
aVJeong S.Y.
p435
aVTrongcharoenchaikul W.
p436
aVElgin M.
p437
aVBiryukov M.
p438
aVInglot D.
p439
aVBlake J.
p440
aVMalisse X.
p441
aVAltamirano C.
p442
aVRufin G.
p443
aVNielsen F.
p444
aVReynolds B.
p445
aVBogaerts R.
p446
aVLevine J.
p447
aVTopic J.
p448
aVWesterhof B.
p449
aVCrivoi V.
p450
aVSalamanca C.
p451
aVKern R.
p452
aVAmritraj P.
p453
aVCipolla F.
p454
aVVinciguerra A.
p455
aVRochus O.
p456
aVReid M.
p457
aVKnittel B.
p458
aVAndreev I.
p459
aVBohli S.
p460
aVBopanna R.
p461
aVCorrie E.
p462
aVBaker J.
p463
aVGhedin R.
p464
aVKorolev E.
p465
aVMarti J.
p466
aVKrawietz K.
p467
aVOlaso G.
p468
aVGranollers G.
p469
aVOuanna J.
p470
aVRachidi Y.
p471
aVZiadi M.
p472
aVNalbandian D.
p473
aVKunitsyn I.
p474
aVRamirez C.
p475
aVCapdeville P.
p476
aVAguilar J.
p477
aVMello R.
p478
aVDe Voest R.
p479
aVSweeting R.
p480
aVMarcan D.
p481
aVVeger F.
p482
aVNaso G.
p483
aVMassu N.
p484
aVBrugues-Davi A.
p485
aVAuthom M.
p486
aVKlec I.
p487
aVJones G.
p488
aVKing-Turner D.
p489
aVZayed M. S.
p490
aVStebe C-M.
p491
aVFerrero J.C.
p492
aVMertens Y.
p493
aVLi Z.
p494
aVYani M.
p495
aVSingh S.
p496
aVKnowle J.
p497
aVDeen Heshaam A.
p498
aVUdomchoke D.
p499
aVYang T.H.
p500
aVSiriluethaiwattana P.
p501
aVFidirko N.
p502
aVBetov S.
p503
aVNedelko I.
p504
aVVasilevski A.
p505
aVReix C.
p506
aVRoddick A.
p507
aVBeck K.
p508
aVMcclune M.
p509
aVMeister N.
p510
aVBalazs A.
p511
aVCervenak P.
p512
aVEhrat S.
p513
aVBubka S.
p514
aVFraile G.
p515
aVTrusendi W.
p516
aVSchwank E.
p517
aVVan Der Merwe I.
p518
aVMinar I.
p519
aVGil F.
p520
aVAlves T.
p521
aVRyderstedt M.
p522
aVGolding O.
p523
aVChela J.I.
p524
aVGoodall J.
p525
aVDuclos P.L.
p526
aVDevilder N.
p527
aVClement A.
p528
aVProdon E.
p529
aVDasnieres de Veigy J.
p530
aVFarah R.
p531
aVNavarro-Pastor I.
p532
aVJunqueira D.
p533
aVGomez-Herrera C.
p534
aVDjokovic M.
p535
aVChvojka E.
p536
aVMoraru G.
p537
aVGranollers-Pujol G.
p538
aVLisnard J.R.
p539
aVLjubicic I.
p540
aVGutierrez-Ferrol S.
p541
aVGonzalez F.
p542
aVDelic A.
p543
aVAwadhy O.
p544
aVGonzalez S.
p545
aVKendrick R.
p546
aVDel Bonis F.
p547
aVKutrovsky D.
p548
aVStrode B.
p549
aVRochus C.
p550
aVLajola D.
p551
aVViola Mat.
p552
aVMesaros K.
p553
aVVan D. Merwe I.
p554
aVKuznetsov A.
p555
aVGremelmayr D.
p556
aVAl Mutawa J.
p557
aVVardhan V.
p558
aVLammer M.
p559
aVMuster T.
p560
aVRieschick S.
p561
aVWachiramanowong K.
p562
aVRodrigues M.
p563
aVRenavand N.
p564
aVTorebko P.
p565
aVDutra Da Silva R.
p566
aVJouan R.
p567
aVGensse A.
p568
aVSitak A.
p569
aVVagnozzi S.
p570
aVGrigelis L.
p571
aVLuczak P.
p572
aVSadecky A.
p573
aVSimmonds P.
p574
aVSoderling R.
p575
aVDecoud S.
p576
aVBogdanovic A.
p577
aVBloomfield R.
p578
aVDabul B.
p579
aVSchuettler R.
p580
aVNiland C.
p581
aVWalter L.
p582
aVKirillov E.
p583
aVSlabinsky A.
p584
aVFleming C.
p585
aVMeffert D.
p586
aVSchoorel T.
p587
aVDaniel M.
p588
aVPeya A.
p589
aVGreul S.
p590
aVGranollers Pujol G.
p591
aVSanchez M.
p592
aVKumantsov A.
p593
aVAcasuso J.
p594
aVBrzezicki J.P.
p595
aVGaldon P.
p596
aVBorvanov R.
p597
aVRomboli F.
p598
aVKoubek S.
p599
aVZampieri C.
p600
aVRios F.
p601
aVHocevar R.
p602
aVWolmarans F.
p603
aVSchukin Y.
p604
aVScholtz N.
p605
aVKlaasen R.
p606
aVGalvani S.
p607
aVStadler S.
p608
aVBall C.
p609
aVCrugnola M.
p610
aVSabry S.
p611
aVCermak F.
p612
aVDent T.
p613
aVPrpic F.
p614
aVBelyaev I.
p615
aVRecouderc L.
p616
aVSi Y.M.
p617
aVDeheart R.
p618
aVVliegen K.
p619
aVAscione T.
p620
aVVentura S.
p621
aVLojda D.
p622
aVSilva J.
p623
aVKim K.
p624
aVPatience O.
p625
aVLindahl N.
p626
aVEleskovic E.
p627
aVEvans B.
p628
aVRiba-Madrid P.
p629
aVKiefer N.
p630
aVAlcaide G.
p631
aVHernandez O.
p632
aVDelgado R.
p633
aVWitten J.
p634
aVKontinen H.
p635
aVJunaid R.
p636
aVEmmrich M.
p637
aVKoellerer D.
p638
aVOkun N.
p639
aVKindlmann D.
p640
aVLapentti N.
p641
aVMoya C.
p642
aVAncic M.
p643
aVMarrero D.
p644
aVTavares L.
p645
aVDi Mauro A.
p646
aVSpadea V.
p647
aVGrosjean S.
p648
aVGaudio G.
p649
aVBritton D.
p650
aVIm K.T.
p651
aVPoerschke L.
p652
aVVassallo-Arguello M.
p653
aVJelenic P.
p654
aVSaavedra Corvalan C.
p655
aVPodlipnik H.
p656
aVAranguren J.M.
p657
aVHrbaty D.
p658
aVLevy H.
p659
aVSergeyev I.
p660
aVSantoro F.
p661
aVLemke J.
p662
aVEl Aynaoui Y.
p663
aVMaamoun K.
p664
aVDe Heart R.
p665
aVHajji A.
p666
aVSafin M.
p667
aVLuncanu P.A.
p668
aVVovk S.
p669
aVHaehnel J.
p670
aVSuzuki T.
p671
aVDe Chaunac S.
p672
aVValent R.
p673
aVPavel A.
p674
aVNiemeyer F.
p675
aVAgostinelli B.
p676
aVRoitman S.
p677
aVCanas G.
p678
aVBerta D.
p679
aVKaranusic R.
p680
aVGregorc L.
p681
aVCalleri A.
p682
aVSluiter R.
p683
aVNorman D.
p684
aVVicente F.
p685
aVSirianni J.
p686
aVMontcourt M.
p687
aVFerreiro F.
p688
aVVanek J.
p689
aVVik R.
p690
aVKloer S.
p691
aVZlatanovic A.
p692
aVJenkins S.
p693
aVChaki R.
p694
aVMarach O.
p695
aVWidom T.
p696
aVAl Ghareeb M.
p697
aVKing E.
p698
aVEchagaray B.
p699
aVBastl G.
p700
aVMunoz de La Nava D.
p701
aVStoppini A.
p702
aVSilva D.
p703
aVSaretta F.
p704
aVPashanski B.
p705
aVVan der Merwe I.
p706
aVHutchins R.
p707
aVAnderson A.
p708
aVEbelthite C.
p709
aVRehnquist B.
p710
aVDlouhy L.
p711
aVLee H.T.
p712
aVSnobel P.
p713
aVJohansson T.
p714
aVBjorkman J.
p715
aVSlanar M.
p716
aVMamiit C.
p717
aVIto Y.
p718
aVKondo H.
p719
aVIwabuchi S.
p720
aVScherrer J.C.
p721
aVSun P.
p722
aVXu J.C.
p723
aVNam H.W.
p724
aVSmeets R.
p725
aVQureshi A.U.H.
p726
aVCruciat A.
p727
aVWarburg S.
p728
aVZib T.
p729
aVMinar J.
p730
aVHorna L.
p731
aVIgnatik U.
p732
aVVemic D.
p733
aVFleishman Z.
p734
aVJun W.S.
p735
aVEstrella V.
p736
aVBelic L.
p737
aVPiccari F.
p738
aVO'Neal J.
p739
aVPless K.
p740
aVMatsukevitch D.
p741
aVEschauer W.
p742
aVBrizzi A.
p743
aVCoria G.
p744
aVRoshardt R.
p745
aVGoransson T.
p746
aVEaton C.
p747
aVOlejniczak D.
p748
aVKim K
p749
aVDell'Acqua M.
p750
aVVerkerk M.
p751
aVMiddelkoop M.
p752
aVSkoch D.
p753
aVMertinak M.
p754
aVVacek J.
p755
aVLipsky S.
p756
aVLopez-Jaen M.A.
p757
aVEysseric J.
p758
aVKuerten G.
p759
aVEitzinger R.
p760
aVSanchez De Luna J.
p761
aVDel Potro J.
p762
aVTrujillo G.
p763
aVMarrai M.
p764
aVMirnyi M.
p765
aVArmando H.
p766
aVHartfield D.
p767
aVde Voest R.
p768
aVNader M.
p769
aVAl-Ghareeb M.
p770
aVRodriguez B.
p771
aVDorsch B.
p772
aVBowles C.
p773
aVMunoz de la Nava D.
p774
aVAldi F.
p775
aVGarcia A.
p776
aVZabaleta M.
p777
aVJones A.
p778
aVEconomidis K.
p779
aVRam A.
p780
aVCakl T.
p781
aVJones G.D.
p782
aVStatham R.
p783
aVde Chaunac S.
p784
aVHaji A.
p785
aVZovko L.
p786
aVSalva B.
p787
aVYouzhny A.
p788
aVHaider-Mauer A.
p789
aVCarlsen K.
p790
aVWessels P.
p791
aVMoodie W.
p792
aVGimelstob J.
p793
aVTerachi T.
p794
aVfnisk
p795
aVMatsui T.
p796
aVRaja P.
p797
aVChen T.
p798
aVDev Varman S.
p799
aVSingh N.
p800
aVQureshi A.
p801
aVWang Y.T.
p802
aVKing P.
p803
aVMartin D.
p804
aVGard C.
p805
aVZeng S.X.
p806
aVSanguinetti D.
p807
aVYu X.Y.
p808
aVHenman T.
p809
aVMcClune M.
p810
aVGuzman J.P.
p811
aVGoldstein P.
p812
aVWhitehouse W.
p813
aVMantilla F.
p814
aVRuevski P.
p815
aVLuzzi F.
p816
aVGuccione A.
p817
aVSa A.
p818
aVWaske A.
p819
aVDupuis A.
p820
aVHealey N.
p821
aVLevine I.
p822
aVBracciali D.
p823
aVKratochvil M.
p824
aVTveit E.
p825
aVArthurs W.
p826
aVMarray J.
p827
aVUlihrach B.
p828
aVGuzman J.
p829
aVChilds L.
p830
aVAllegro Y.
p831
aVKoning M.
p832
aVKohlmann M.
p833
aVdi Mauro A.
p834
aVDolgopolov A.
p835
aVSummerer T.
p836
aVZimonjic N.
p837
aVSaoudi S.
p838
aVStepanek M.
p839
aVPortas A.
p840
aVFornell M.
p841
aVBurgsmuller L.
p842
aVGambill J.M.
p843
aVSrichaphan P.
p844
aVLu Y.
p845
aVBahrouzyan O.
p846
aVvan Scheppingen D.
p847
aVOudsema S.
p848
aVWilson B.
p849
aVSaulnier C.
p850
aVMackin A.
p851
aVBourgeois L.
p852
aVJun W.
p853
aVKhalfan S.
p854
aVRastogi K.
p855
aVRobredo R.
p856
aVFish A.
p857
aVNovak J.
p858
aVMassa E.
p859
aVChaen T.
p860
aVMotomura G.
p861
aVClemens T.
p862
aVMarin J.A.
p863
aVAuckland J.
p864
aVWagh A.
p865
aVMoser F.
p866
aVSmit J.
p867
aVIonita V.
p868
aVSabau R.
p869
aVWang Y.Jr.
p870
aVAgassi A.
p871
aVRusedski G.
p872
aVPhilippoussis M.
p873
aVMorrison J.
p874
aVNestor D.
p875
aVFaurel J.C.
p876
aVPanfil G.
p877
aVIanni S.
p878
aVCalatrava A.
p879
aVAzzaro L.
p880
aVSandbichler A.
p881
aVPatriarca D.
p882
aVPopp T.
p883
aVBehrend T.
p884
aVLabadze I.
p885
aVDelgado J.
p886
aVvan Gemerden M.
p887
aVLee M.
p888
aVTuksar S.
p889
aVChela J.
p890
aVWang Y.
p891
aVMarcaccio G.
p892
aVPerez D.
p893
aVLuque D.
p894
aVTahiri M.
p895
aVPeric T.
p896
aVEl Aarej M.
p897
aVCosta A.
p898
aVCuadrado C.
p899
aVBlanco G.
p900
aVGranollers-Pujol M.
p901
aVBurniol G.
p902
aVQuerry S.
p903
aVMazarakis V.
p904
aVWeiner G.
p905
aVSalzenstein J.
p906
aVVahaly B.
p907
aVSargsian S.
p908
aVvan Lottum J.
p909
aVGalimberti G.
p910
aVGallardo Valles M.
p911
aVParmar A.
p912
aVVan der Dium A.
p913
aVLisnard J.
p914
aVRettenmaier T.
p915
aVThomann N.
p916
aVFriedl L.
p917
aVHormazabal G.
p918
aVParada F.
p919
aVAdaktusson J.
p920
aVKimmich M.
p921
aVNielsen M.
p922
aVSultan-Khalfan A.
p923
aVUppal V.
p924
aVCarraz G.
p925
aVPuerta M.
p926
aVEnqvist T.
p927
aVPopp A.
p928
aVTaino E.
p929
aVIttogi T.
p930
aVIwami T.
p931
aVElsner D.
p932
aVSanchez D.
p933
aVSanchez de Luna J.A.
p934
aVVico U.
p935
aVThron A.
p936
aVDo M.Q.
p937
aVFruttero J.P.
p938
aVFyrstenberg M.
p939
aVWang Y. Jr
p940
aVHadad A.
p941
aVHeuberger I.
p942
aVKucera K.
p943
aVElseneer G.
p944
aVMathieu P.
p945
aVSteckley R.
p946
aVClayton A.
p947
aVChadaj A.
p948
aVMatkowski M.
p949
aVKrajan Z.
p950
aVTabara M.
p951
aVHipfl M.
p952
aVSchalken S.
p953
aVWashington M.
p954
aVKorteling S.
p955
aVZitko R.
p956
aVMergea F.
p957
aVSherwood D.
p958
aVKetola T.
p959
aVDraper S.
p960
aVHilton M.
p961
aVMankad H.
p962
aVLogtens P.
p963
aVKlein T.
p964
aVUebel L.
p965
aVVoltchkov V.
p966
aVTenconi T.
p967
aVFogues F.
p968
aVMirnegg M.
p969
aVCorretja A.
p970
aVCondor F.
p971
aVBoeker M.
p972
aVMatos-Gil I.
p973
aVArazi H.
p974
aVMutis O.
p975
aVTecau H.
p976
aVGallardo M.
p977
aVHernandez A.
p978
aVDailey Z.
p979
aVLuczak A.
p980
aVHarboe P.
p981
aVBlake T.
p982
aVNunez E.
p983
aVMarch O.
p984
aVReid T.
p985
aVBaccanello P.
p986
aVAbdulla M.
p987
aVPaes L.
p988
aVAndersen J.F.
p989
aVSettergren J.
p990
aVRascon T.
p991
aVGruber K.
p992
aVZhu B.Q.
p993
aVdi Pasquale A.
p994
aVWassen R.
p995
aVSavolt A.
p996
aVCrabb J.
p997
aVRosset M.
p998
aVGolmard J.
p999
aVPedroso A.
p1000
aVBohane A.
p1001
aVSquillari F.
p1002
aVLu H.
p1003
aVBenneteau A.
p1004
aVFerreira W.
p1005
aVHippensteel K.
p1006
aVMartin T.
p1007
aVYoo D.
p1008
aVUrban F.
p1009
aVEscude N.
p1010
aVLarose S.
p1011
aVGimeno D.
p1012
aVSchiessling T.
p1013
aVPescosolido S.
p1014
aVAger J.
p1015
aVJeanpierre J.
p1016
aVBoutter J.
p1017
aVCook L.
p1018
aVvan der Meer N.
p1019
aVVerdasco M.
p1020
aVHellstrom M.
p1021
aVIvanisevic G.
p1022
aVFitz S.
p1023
aVAncic I.
p1024
aVFlanagan I.
p1025
aVPrinosil D.
p1026
aVBrowne F.
p1027
aVAbel M.
p1028
aVNavarro S.
p1029
aVHaas P.
p1030
aVFerrero J.
p1031
aVVeronelli D.
p1032
aVRocha D.
p1033
aVPhillips T.
p1034
aVBraga P.
p1035
aVBryan B.
p1036
aVMoyano D.
p1037
aVMiranda I.
p1038
aVGamonal H.
p1039
aVReichel A.
p1040
aVKutsenko V.
p1041
aVLarkham T.
p1042
aVKucera V.
p1043
aVHemmes F.
p1044
aVRea S.
p1045
aVHantschk M.
p1046
aVAndersen J.
p1047
aVKafelnikov Y.
p1048
aVDavletshin V.
p1049
aVVacek D.
p1050
aVAscione A.
p1051
aVCaratti C.
p1052
aVNorman M.
p1053
aVKim A.
p1054
aVGiner J.
p1055
aVErlich J.
p1056
aVLuxa P.
p1057
aVRatiwatana S.
p1058
aVMoldovan I.
p1059
aVEtlis G.
p1060
aVQuintero M.
p1061
aVChang M.
p1062
aVYim R.
p1063
aVBlack W.
p1064
aVBryan M.
p1065
aVMacLagan M.
p1066
aVCarlson A.
p1067
aVRamirez Hidalgo R.
p1068
aVGoellner M.K.
p1069
aVVoinea A.
p1070
aVDabrowski B.
p1071
aVBogomolov Jr. A.
p1072
aVJoyce M.
p1073
aVKennedy A.
p1074
aVIlie A.
p1075
aVGolovanov D.
p1076
aVRadic M.
p1077
aVGross O.
p1078
aVNeumuller I.
p1079
aVAyala D.
p1080
aVBehrmann M.
p1081
aVFurlan R.
p1082
aVClavet F.
p1083
aVLevinsky J.
p1084
aVStoliarov A.
p1085
aVShimada T.
p1086
aVSarstrand M.
p1087
aVSvarc L.
p1088
aVPrpic A.
p1089
aVAndersson H.
p1090
aVKrajicek R.
p1091
aVKoderisch C.
p1092
aVDreekmann H.
p1093
aVCoutelot N.
p1094
aVVarlet J.
p1095
aVDelfino M.
p1096
aVWeinzierl J.
p1097
aVSchuettler P.
p1098
aVGaudenzi A.
p1099
aVSrichaphan N.
p1100
aVMeligeni F.
p1101
aVBrasington J.
p1102
aVMota B.
p1103
aVLopes H.
p1104
aVOuahabi T.
p1105
aVRios M.
p1106
aVDi Pasquale A.
p1107
aVGooding J.
p1108
aVVan Lottum J.
p1109
aVLarsson M.
p1110
aVNorby R.
p1111
aVMarin J.A
p1112
aVMelo D.
p1113
aVGambill J. M.
p1114
aVCharpentier M.
p1115
aVSerrano O.
p1116
aVPrieto S.
p1117
aVPeralta J.
p1118
aVDiaz J.
p1119
aVBalcells J.
p1120
aVCadart R.
p1121
aVHenry R.
p1122
aVDurek R.
p1123
aVHantschek M.
p1124
aVAlami K.
p1125
aVShvec A.
p1126
aVOnoda M.
p1127
aVSimoni A.
p1128
aVBohaboy D.
p1129
aVMiyao J.
p1130
aVFukarek O.
p1131
aVCraca M.
p1132
aVOgorodov O.
p1133
aVIvanov-Smolensky K.
p1134
aVPioline C.
p1135
aVSampras P.
p1136
aVKunitcin I.
p1137
aVKempes E.
p1138
aVBogomolov Jr.A.
p1139
aVLukaev R.
p1140
aVHanley P.
p1141
aVGodwin N.
p1142
aVRoux L.
p1143
aVAgaev E.
p1144
aVTiilikainen K.
p1145
aVWiltschnig H.
p1146
aVKnippschild J.
p1147
aVSiemerink J.
p1148
aVPretzsch A.
p1149
aVEllwood B.
p1150
aVTrifu G.
p1151
aVTodero N.
p1152
aVCowan B.
p1153
aVBower J.
p1154
aVBachelot J.F
p1155
aVGarcia M.
p1156
aVCoetzee J.
p1157
aVVinck C.
p1158
aVNadal-Parera R.
p1159
aVAlbert M.
p1160
aVHirigoyen I.
p1161
aVMarin L.
p1162
aVCapalik K.
p1163
aVBruguera S.
p1164
aVCosta F.
p1165
aVMatias N.
p1166
aVSantopadre V.
p1167
aVBlack B.
p1168
aVWoodruff C.
p1169
aVDamm M.
p1170
aVOlguin L.
p1171
aVTarango J.
p1172
aVFromberg R.
p1173
aVWillman D.
p1174
aVAl Khulaifi N.G.
p1175
aVBhupathi M.
p1176
aVDupre T.
p1177
aVRafter P.
p1178
aVGustafsson M.
p1179
aVMedvedev A.
p1180
aVBehr N.
p1181
aVYoon Y.
p1182
aVThomas J.
p1183
aVIshii Y.
p1184
aVPuentes G.
p1185
aVGarcia-Sintes J.
p1186
aVCarretero R.
p1187
aVHui J.
p1188
aVWoodbridge T.
p1189
aVTebbutt M.
p1190
aVKoenig R.
p1191
aVJiang S.
p1192
aVPozzi G.
p1193
aVKroslak J.
p1194
aVTomashevich D.
p1195
aVOncins J.
p1196
aVPeppas S.
p1197
aVPescariu D.
p1198
aVDosedel S.
p1199
aVHarper-Griffith L.
p1200
aVO'Brien A.
p1201
aVHarsanyi P.
p1202
aVLareau S.
p1203
aVAgenor R.
p1204
aVPfeiffer K.
p1205
aVAlvarez E.
p1206
aVMartelli M.
p1207
aVBozic I.
p1208
aVTkalec M.
p1209
aVVajda I.
p1210
aVHerm-Zahlava J.
p1211
aVManta L.
p1212
aVBurrieza O.
p1213
aVHood M.
p1214
aVJonsson F.
p1215
aVVlasov D.
p1216
aVFlygt K.
p1217
aVStoltenberg J.
p1218
aVHuet S.
p1219
aVDerepasko A.
p1220
aVMilligan L.
p1221
aVPetrovic D.
p1222
aVStark J.
p1223
aVOndruska M.
p1224
aVKauffmann C.
p1225
aVTraykov I.
p1226
aVNavarra M.
p1227
aVRuud C.
p1228
aVBerasategui A.
p1229
aVRodriguez M.
p1230
aVSousa T.
p1231
aVViloca J.A.
p1232
aVCouto E.
p1233
aVMalcor O.
p1234
aVBelal C.
p1235
aVKralert P.
p1236
aVEagle J.
p1237
aVGumy H.
p1238
aVArquez P.
p1239
aVKoll H.
p1240
aVHadad M.
p1241
aVTobon M.
p1242
aVStanoytchev O.
p1243
aVPerry T.
p1244
aVBreen M.
p1245
aVAl-Alawi S.K.
p1246
aVSyed F.
p1247
aVSmith L.
p1248
aVFroberg J.
p1249
aVOrtegren J.
p1250
aVUllyett K.
p1251
aVNargiso D.
p1252
aVFreelove O.
p1253
aVSekulov J.
p1254
aVPalmer J.
p1255
aVKornienko I.
p1256
aVCherkasov A.
p1257
aVTillstrom M.
p1258
aVTieleman L.
p1259
aVZhang Y.
p1260
aVMlynarik Z.
p1261
aVTong M.
p1262
aVTarallo S.
p1263
aVTrimmel C.
p1264
aVAlonso J.
p1265
aVGuardiola T.
p1266
aVHumphries S.
p1267
aVCaldwell D.
p1268
aVMor L.
p1269
aVKnowles M.
p1270
aVWheaton D.
p1271
aVTramacchi P.
p1272
aVCobolli S.
p1273
aVKilderry P.
p1274
aVFilippini M.
p1275
aVCabello F.
p1276
aVFasching A.
p1277
aVVasek R.
p1278
aVMoretti H.
p1279
aVLopez-Moron A.
p1280
aVSchranz W.
p1281
aVPeschek D.
p1282
aVKarbacher B.
p1283
aVMiketa D.
p1284
aVArnold L.
p1285
aVFleischfresser T.
p1286
aVKulti N.
p1287
aVTimfjord N.
p1288
aVGaudi I.
p1289
aVBraasch K.
p1290
aVBoruszewski J.
p1291
aVLandsberg J.
p1292
aVHill M.
p1293
aVWitt A.
p1294
aVRaoux G.
p1295
aVDewulf F.
p1296
aVFahlke A.
p1297
aVMarques N.
p1298
aVWillems R.
p1299
aVCourier J.
p1300
aVCortes J.
p1301
aVGonzalez P.
p1302
aVSpottl M.
p1303
aVSzymanski J.
p1304
aVWoodforde M.
p1305
aVLiukko V.
p1306
aVReneberg R.
p1307
aVMacPhie B.
p1308
aVJensen L.
p1309
aVStafford G.
p1310
aVSell M.
p1311
aVSanchez J.
p1312
aVKumar S.
p1313
a.